(dp1
S'output'
p2
S"<type 'exceptions.SyntaxError'> invalid syntax (default.py, line 73)"
p3
sS'layer'
p4
S'/home/shipra/Desktop/Semester 1.2/ITWS-2/web2py/applications/shipra/controllers/default.py'
p5
sS'code'
p6
S'# -*- coding: utf-8 -*-\n# this file is released under public domain and you can use without limitations\n\n#########################################################################\n## This is a samples controller\n## - index is the default action of any application\n## - user is required for authentication and authorization\n## - download is for downloading files uploaded in the db (does streaming)\n## - call exposes all registered services (none by default)\n#########################################################################\n\n@auth.requires_login()\ndef index():\n    """\n    example action using the internationalization operator T and flash\n    rendered by views/default/index.html or views/generic.html\n\n    if you need a simple wiki simple replace the two lines below with:\n    return auth.wiki()\n    """\n    c=auth.user_id\n    response.flash = T("Welcome to web2py!")\n    return locals()\n    #return dict(message=T(\'Hello World\'))\n@auth.requires_login()\ndef Personal():\n\tc=auth.user_id\n\tdb.Personal.pid.default=c\n\tdb.Personal.pid.readable=True\n\tdb.Personal.pid.writable=False\n\tform=SQLFORM(db.Personal)\n\tif form.process().accepted:\n\t\tresponse.flash=\'form accepted\'\n\telif form.errors:\n\t\tresponse.flash = \'form has errors\'\n\treturn dict(form=form)\ndef Education():\n\tc=auth.user_id\n\tdb.Education.eid.default=c\n\tdb.Education.eid.readable=True\n\tdb.Education.eid.writable=False\n\tform=SQLFORM(db.Education)\n\tif form.process().accepted:\n\t\tresponse.flash=\'form accepted\'\n\telif form.errors:\n\t\tresponse.flash=\'form has errors\'\n\treturn dict(form=form)\ndef Merit():\t\n\tc=auth.user_id\n\tdb.Merit.mid.default=c\n\tdb.Merit.mid.readable=True\n\tdb.Merit.mid.writable=False\n\tform=SQLFORM(db.Merit)\n\tif form.process().accepted:\n\t\tresponse.flash=\'form accepted\'\n\telif form.errors:\n\t\tresponse.flash=\'form has errors\'\n\treturn dict(form=form)\n\ndef Experience():\n\tc=auth.user_id\n\tdb.Experience.exid.default=c\n\tdb.Experience.exid.readable=True\n\tdb.Experience.exid.writable=False\n\tform=SQLFORM(db.Experience)\n\tif form.process().accepted:\n\t\tresponse.flash=\'form accepted\'\n\telif form.errors:\n\t\tresponse.flash=\'form has errors\'\n\treturn dict(form=form)\ndef create():\n\treturn locals()\ndef print():\n\tc=auth.user_id\n\tpers=db.select(db.Personal.pid==c).select(db.Personal.ALL)\n\tedu=db.select(db.Education.eid==c).select(db.Education.ALL)\n\tmer=db.select(db.Merit.mid==c).select(db.Merit.ALL)\n\texp=db.select(db.Experience.exid==c).select(db.Experience.ALL)\n\treturn locals()\n\n\ndef user():\n    """\n    exposes:\n    http://..../[app]/default/user/login\n    http://..../[app]/default/user/logout\n    http://..../[app]/default/user/register\n    http://..../[app]/default/user/profile\n    http://..../[app]/default/user/retrieve_password\n    http://..../[app]/default/user/change_password\n    use @auth.requires_login()\n        @auth.requires_membership(\'group name\')\n        @auth.requires_permission(\'read\',\'table name\',record_id)\n    to decorate functions that need access control\n    """\n    return dict(form=auth())\n\n\ndef download():\n    """\n    allows downloading of uploaded files\n    http://..../[app]/default/download/[filename]\n    """\n    return response.download(request, db)\n\n\ndef call():\n    """\n    exposes services. for example:\n    http://..../[app]/default/call/jsonrpc\n    decorate with @services.jsonrpc the functions to expose\n    supports xml, json, xmlrpc, jsonrpc, amfrpc, rss, csv\n    """\n    return service()\n\n\n@auth.requires_signature()\ndef data():\n    """\n    http://..../[app]/default/data/tables\n    http://..../[app]/default/data/create/[table]\n    http://..../[app]/default/data/read/[table]/[id]\n    http://..../[app]/default/data/update/[table]/[id]\n    http://..../[app]/default/data/delete/[table]/[id]\n    http://..../[app]/default/data/select/[table]\n    http://..../[app]/default/data/search/[table]\n    but URLs must be signed, i.e. linked with\n      A(\'table\',_href=URL(\'data/tables\',user_signature=True))\n    or with the signed load operator\n      LOAD(\'default\',\'data.load\',args=\'tables\',ajax=True,user_signature=True)\n    """\n    return dict(form=crud())\n\nresponse._vars=response._caller(user)\n'
p7
sS'snapshot'
p8
(dp9
S'exception'
p10
(dp11
S'__getslice__'
p12
S"<method-wrapper '__getslice__' of exceptions.SyntaxError object>"
p13
sS'text'
p14
S"'def print():\\n'"
p15
sS'__str__'
p16
S"<method-wrapper '__str__' of exceptions.SyntaxError object>"
p17
sS'__reduce__'
p18
S'<built-in method __reduce__ of exceptions.SyntaxError object>'
p19
sS'__dict__'
p20
S'{}'
p21
sS'__sizeof__'
p22
S'<built-in method __sizeof__ of exceptions.SyntaxError object>'
p23
sS'__init__'
p24
S"<method-wrapper '__init__' of exceptions.SyntaxError object>"
p25
sS'__setattr__'
p26
S"<method-wrapper '__setattr__' of exceptions.SyntaxError object>"
p27
sS'__reduce_ex__'
p28
S'<built-in method __reduce_ex__ of exceptions.SyntaxError object>'
p29
sS'__new__'
p30
S'<built-in method __new__ of type object>'
p31
sS'__format__'
p32
S'<built-in method __format__ of exceptions.SyntaxError object>'
p33
sS'__class__'
p34
S"<type 'exceptions.SyntaxError'>"
p35
sS'filename'
p36
S"'/home/shipra/Desktop/Semester 1.2/ITWS-2/web2py/applications/shipra/controllers/default.py'"
p37
sS'lineno'
p38
S'73'
p39
sS'msg'
p40
S"'invalid syntax'"
p41
sS'__doc__'
p42
S"'Invalid syntax.'"
p43
sS'__getitem__'
p44
S"<method-wrapper '__getitem__' of exceptions.SyntaxError object>"
p45
sS'__setstate__'
p46
S'<built-in method __setstate__ of exceptions.SyntaxError object>'
p47
sS'__getattribute__'
p48
S"<method-wrapper '__getattribute__' of exceptions.SyntaxError object>"
p49
sS'print_file_and_line'
p50
S'None'
p51
sS'args'
p52
S"('invalid syntax', ('/home/shipra/Desktop/Semester 1.2/ITWS-2/web2py/applications/shipra/controllers/default.py', 73, 9, 'def print():\\n'))"
p53
sS'__subclasshook__'
p54
S'<built-in method __subclasshook__ of type object>'
p55
sS'offset'
p56
S'9'
sS'__unicode__'
p57
S'<built-in method __unicode__ of exceptions.SyntaxError object>'
p58
sS'__delattr__'
p59
S"<method-wrapper '__delattr__' of exceptions.SyntaxError object>"
p60
sS'__repr__'
p61
S"<method-wrapper '__repr__' of exceptions.SyntaxError object>"
p62
sS'__hash__'
p63
S"<method-wrapper '__hash__' of exceptions.SyntaxError object>"
p64
ssS'evalue'
p65
S'invalid syntax (default.py, line 73)'
p66
sS'request'
p67
ccopy_reg
_reconstructor
p68
(cgluon.html
BEAUTIFY
p69
c__builtin__
object
p70
NtRp71
(dp72
S'attributes'
p73
(dp74
sS'components'
p75
(lp76
g68
(cgluon.html
TABLE
p77
g70
NtRp78
(dp79
g73
(dp80
S'level'
p81
I5
ssS'parent'
p82
Nsg75
(lp83
g68
(cgluon.html
TR
p84
g70
NtRp85
(dp86
g73
(dp87
sg82
g78
sg75
(lp88
g68
(cgluon.html
TD
p89
g70
NtRp90
(dp91
g73
(dp92
S'_style'
p93
S'font-weight:bold;vertical-align:top'
p94
ssg82
g85
sg75
(lp95
S'ajax'
p96
asbag68
(g89
g70
NtRp97
(dp98
g73
(dp99
S'_valign'
p100
S'top'
p101
ssg82
g85
sg75
(lp102
S':'
asbag68
(g89
g70
NtRp103
(dp104
g73
(dp105
sg82
g85
sg75
(lp106
g68
(g69
g70
NtRp107
(dp108
g73
(dp109
g81
I5
ssg82
g103
sg75
(lp110
S'False'
p111
asbasbasbag68
(g84
g70
NtRp112
(dp113
g73
(dp114
sg82
g78
sg75
(lp115
g68
(g89
g70
NtRp116
(dp117
g73
(dp118
g93
g94
ssg82
g112
sg75
(lp119
S'application'
p120
asbag68
(g89
g70
NtRp121
(dp122
g73
(dp123
g100
g101
ssg82
g112
sg75
(lp124
S':'
asbag68
(g89
g70
NtRp125
(dp126
g73
(dp127
sg82
g112
sg75
(lp128
g68
(g69
g70
NtRp129
(dp130
g73
(dp131
g81
I5
ssg82
g125
sg75
(lp132
S'shipra'
p133
asbasbasbag68
(g84
g70
NtRp134
(dp135
g73
(dp136
sg82
g78
sg75
(lp137
g68
(g89
g70
NtRp138
(dp139
g73
(dp140
g93
g94
ssg82
g134
sg75
(lp141
g52
asbag68
(g89
g70
NtRp142
(dp143
g73
(dp144
g100
g101
ssg82
g134
sg75
(lp145
S':'
asbag68
(g89
g70
NtRp146
(dp147
g73
(dp148
sg82
g134
sg75
(lp149
g68
(g69
g70
NtRp150
(dp151
g73
(dp152
g81
I5
ssg82
g146
sg75
(lp153
g68
(g77
g70
NtRp154
(dp155
g73
(dp156
g81
I4
ssg82
Nsg75
(lp157
g68
(g84
g70
NtRp158
(dp159
g73
(dp160
sg82
g154
sg75
(lp161
g68
(g89
g70
NtRp162
(dp163
g73
(dp164
sg82
g158
sg75
(lp165
g68
(g69
g70
NtRp166
(dp167
g73
(dp168
g81
I4
ssg82
g162
sg75
(lp169
S'login'
p170
asbasbasbasbasbasbasbag68
(g84
g70
NtRp171
(dp172
g73
(dp173
sg82
g78
sg75
(lp174
g68
(g89
g70
NtRp175
(dp176
g73
(dp177
g93
g94
ssg82
g171
sg75
(lp178
S'body'
p179
asbag68
(g89
g70
NtRp180
(dp181
g73
(dp182
g100
g101
ssg82
g171
sg75
(lp183
S':'
asbag68
(g89
g70
NtRp184
(dp185
g73
(dp186
sg82
g171
sg75
(lp187
g68
(g69
g70
NtRp188
(dp189
g73
(dp190
g81
I5
ssg82
g184
sg75
(lp191
S'<cStringIO.StringO object at 0x7f812828b8f0>'
p192
asbasbasbag68
(g84
g70
NtRp193
(dp194
g73
(dp195
sg82
g78
sg75
(lp196
g68
(g89
g70
NtRp197
(dp198
g73
(dp199
g93
g94
ssg82
g193
sg75
(lp200
S'cid'
p201
asbag68
(g89
g70
NtRp202
(dp203
g73
(dp204
g100
g101
ssg82
g193
sg75
(lp205
S':'
asbag68
(g89
g70
NtRp206
(dp207
g73
(dp208
sg82
g193
sg75
(lp209
g68
(g69
g70
NtRp210
(dp211
g73
(dp212
g81
I5
ssg82
g206
sg75
(lp213
S'None'
p214
asbasbasbag68
(g84
g70
NtRp215
(dp216
g73
(dp217
sg82
g78
sg75
(lp218
g68
(g89
g70
NtRp219
(dp220
g73
(dp221
g93
g94
ssg82
g215
sg75
(lp222
S'client'
p223
asbag68
(g89
g70
NtRp224
(dp225
g73
(dp226
g100
g101
ssg82
g215
sg75
(lp227
S':'
asbag68
(g89
g70
NtRp228
(dp229
g73
(dp230
sg82
g215
sg75
(lp231
g68
(g69
g70
NtRp232
(dp233
g73
(dp234
g81
I5
ssg82
g228
sg75
(lp235
S'127.0.0.1'
p236
asbasbasbag68
(g84
g70
NtRp237
(dp238
g73
(dp239
sg82
g78
sg75
(lp240
g68
(g89
g70
NtRp241
(dp242
g73
(dp243
g93
g94
ssg82
g237
sg75
(lp244
S'controller'
p245
asbag68
(g89
g70
NtRp246
(dp247
g73
(dp248
g100
g101
ssg82
g237
sg75
(lp249
S':'
asbag68
(g89
g70
NtRp250
(dp251
g73
(dp252
sg82
g237
sg75
(lp253
g68
(g69
g70
NtRp254
(dp255
g73
(dp256
g81
I5
ssg82
g250
sg75
(lp257
S'default'
p258
asbasbasbag68
(g84
g70
NtRp259
(dp260
g73
(dp261
sg82
g78
sg75
(lp262
g68
(g89
g70
NtRp263
(dp264
g73
(dp265
g93
g94
ssg82
g259
sg75
(lp266
S'cookies'
p267
asbag68
(g89
g70
NtRp268
(dp269
g73
(dp270
g100
g101
ssg82
g259
sg75
(lp271
S':'
asbag68
(g89
g70
NtRp272
(dp273
g73
(dp274
sg82
g259
sg75
(lp275
g68
(g69
g70
NtRp276
(dp277
g73
(dp278
g81
I5
ssg82
g272
sg75
(lp279
g68
(g77
g70
NtRp280
(dp281
g73
(dp282
g81
I4
ssg82
Nsg75
(lp283
g68
(g84
g70
NtRp284
(dp285
g73
(dp286
sg82
g280
sg75
(lp287
g68
(g89
g70
NtRp288
(dp289
g73
(dp290
g93
g94
ssg82
g284
sg75
(lp291
S'mp_2093ad9ff9c5428a2228386de2f2b0e4_mixpanel'
p292
asbag68
(g89
g70
NtRp293
(dp294
g73
(dp295
g100
g101
ssg82
g284
sg75
(lp296
S':'
asbag68
(g89
g70
NtRp297
(dp298
g73
(dp299
sg82
g284
sg75
(lp300
g68
(g69
g70
NtRp301
(dp302
g73
(dp303
g81
I4
ssg82
g297
sg75
(lp304
S'%7B%22distinct_id%22%3A%20%2262ffc2d0-7b9f-0130-efb0-22000a1cbb2a%22%2C%22is_registered_user%22%3A%20false%2C%22%24initial_referrer%22%3A%20%22%24direct%22%2C%22%24initial_referring_domain%22%3A%20%22%24direct%22%7D'
p305
ag68
(g77
g70
NtRp306
(dp307
g73
(dp308
g81
I3
ssg82
Nsg75
(lp309
g68
(g84
g70
NtRp310
(dp311
g73
(dp312
sg82
g306
sg75
(lp313
g68
(g89
g70
NtRp314
(dp315
g73
(dp316
g93
g94
ssg82
g310
sg75
(lp317
S'comment'
p318
asbag68
(g89
g70
NtRp319
(dp320
g73
(dp321
g100
g101
ssg82
g310
sg75
(lp322
S':'
asbag68
(g89
g70
NtRp323
(dp324
g73
(dp325
sg82
g310
sg75
(lp326
g68
(g69
g70
NtRp327
(dp328
g73
(dp329
g81
I3
ssg82
g323
sg75
(lp330
S''
asbasbasbag68
(g84
g70
NtRp331
(dp332
g73
(dp333
sg82
g306
sg75
(lp334
g68
(g89
g70
NtRp335
(dp336
g73
(dp337
g93
g94
ssg82
g331
sg75
(lp338
S'domain'
p339
asbag68
(g89
g70
NtRp340
(dp341
g73
(dp342
g100
g101
ssg82
g331
sg75
(lp343
S':'
asbag68
(g89
g70
NtRp344
(dp345
g73
(dp346
sg82
g331
sg75
(lp347
g68
(g69
g70
NtRp348
(dp349
g73
(dp350
g81
I3
ssg82
g344
sg75
(lp351
S''
asbasbasbag68
(g84
g70
NtRp352
(dp353
g73
(dp354
sg82
g306
sg75
(lp355
g68
(g89
g70
NtRp356
(dp357
g73
(dp358
g93
g94
ssg82
g352
sg75
(lp359
S'expires'
p360
asbag68
(g89
g70
NtRp361
(dp362
g73
(dp363
g100
g101
ssg82
g352
sg75
(lp364
S':'
asbag68
(g89
g70
NtRp365
(dp366
g73
(dp367
sg82
g352
sg75
(lp368
g68
(g69
g70
NtRp369
(dp370
g73
(dp371
g81
I3
ssg82
g365
sg75
(lp372
S''
asbasbasbag68
(g84
g70
NtRp373
(dp374
g73
(dp375
sg82
g306
sg75
(lp376
g68
(g89
g70
NtRp377
(dp378
g73
(dp379
g93
g94
ssg82
g373
sg75
(lp380
S'httponly'
p381
asbag68
(g89
g70
NtRp382
(dp383
g73
(dp384
g100
g101
ssg82
g373
sg75
(lp385
S':'
asbag68
(g89
g70
NtRp386
(dp387
g73
(dp388
sg82
g373
sg75
(lp389
g68
(g69
g70
NtRp390
(dp391
g73
(dp392
g81
I3
ssg82
g386
sg75
(lp393
S''
asbasbasbag68
(g84
g70
NtRp394
(dp395
g73
(dp396
sg82
g306
sg75
(lp397
g68
(g89
g70
NtRp398
(dp399
g73
(dp400
g93
g94
ssg82
g394
sg75
(lp401
S'max-age'
p402
asbag68
(g89
g70
NtRp403
(dp404
g73
(dp405
g100
g101
ssg82
g394
sg75
(lp406
S':'
asbag68
(g89
g70
NtRp407
(dp408
g73
(dp409
sg82
g394
sg75
(lp410
g68
(g69
g70
NtRp411
(dp412
g73
(dp413
g81
I3
ssg82
g407
sg75
(lp414
S''
asbasbasbag68
(g84
g70
NtRp415
(dp416
g73
(dp417
sg82
g306
sg75
(lp418
g68
(g89
g70
NtRp419
(dp420
g73
(dp421
g93
g94
ssg82
g415
sg75
(lp422
S'path'
p423
asbag68
(g89
g70
NtRp424
(dp425
g73
(dp426
g100
g101
ssg82
g415
sg75
(lp427
S':'
asbag68
(g89
g70
NtRp428
(dp429
g73
(dp430
sg82
g415
sg75
(lp431
g68
(g69
g70
NtRp432
(dp433
g73
(dp434
g81
I3
ssg82
g428
sg75
(lp435
S''
asbasbasbag68
(g84
g70
NtRp436
(dp437
g73
(dp438
sg82
g306
sg75
(lp439
g68
(g89
g70
NtRp440
(dp441
g73
(dp442
g93
g94
ssg82
g436
sg75
(lp443
S'secure'
p444
asbag68
(g89
g70
NtRp445
(dp446
g73
(dp447
g100
g101
ssg82
g436
sg75
(lp448
S':'
asbag68
(g89
g70
NtRp449
(dp450
g73
(dp451
sg82
g436
sg75
(lp452
g68
(g69
g70
NtRp453
(dp454
g73
(dp455
g81
I3
ssg82
g449
sg75
(lp456
S''
asbasbasbag68
(g84
g70
NtRp457
(dp458
g73
(dp459
sg82
g306
sg75
(lp460
g68
(g89
g70
NtRp461
(dp462
g73
(dp463
g93
g94
ssg82
g457
sg75
(lp464
S'version'
p465
asbag68
(g89
g70
NtRp466
(dp467
g73
(dp468
g100
g101
ssg82
g457
sg75
(lp469
S':'
asbag68
(g89
g70
NtRp470
(dp471
g73
(dp472
sg82
g457
sg75
(lp473
g68
(g69
g70
NtRp474
(dp475
g73
(dp476
g81
I3
ssg82
g470
sg75
(lp477
S''
asbasbasbasbasbasbasbag68
(g84
g70
NtRp478
(dp479
g73
(dp480
sg82
g280
sg75
(lp481
g68
(g89
g70
NtRp482
(dp483
g73
(dp484
g93
g94
ssg82
g478
sg75
(lp485
S'session_id_welcome'
p486
asbag68
(g89
g70
NtRp487
(dp488
g73
(dp489
g100
g101
ssg82
g478
sg75
(lp490
S':'
asbag68
(g89
g70
NtRp491
(dp492
g73
(dp493
sg82
g478
sg75
(lp494
g68
(g69
g70
NtRp495
(dp496
g73
(dp497
g81
I4
ssg82
g491
sg75
(lp498
S'127.0.0.1-bac479ef-22ec-41f7-a43d-cc54391f583c'
p499
ag68
(g77
g70
NtRp500
(dp501
g73
(dp502
g81
I3
ssg82
Nsg75
(lp503
g68
(g84
g70
NtRp504
(dp505
g73
(dp506
sg82
g500
sg75
(lp507
g68
(g89
g70
NtRp508
(dp509
g73
(dp510
g93
g94
ssg82
g504
sg75
(lp511
g318
asbag68
(g89
g70
NtRp512
(dp513
g73
(dp514
g100
g101
ssg82
g504
sg75
(lp515
S':'
asbag68
(g89
g70
NtRp516
(dp517
g73
(dp518
sg82
g504
sg75
(lp519
g68
(g69
g70
NtRp520
(dp521
g73
(dp522
g81
I3
ssg82
g516
sg75
(lp523
S''
asbasbasbag68
(g84
g70
NtRp524
(dp525
g73
(dp526
sg82
g500
sg75
(lp527
g68
(g89
g70
NtRp528
(dp529
g73
(dp530
g93
g94
ssg82
g524
sg75
(lp531
g339
asbag68
(g89
g70
NtRp532
(dp533
g73
(dp534
g100
g101
ssg82
g524
sg75
(lp535
S':'
asbag68
(g89
g70
NtRp536
(dp537
g73
(dp538
sg82
g524
sg75
(lp539
g68
(g69
g70
NtRp540
(dp541
g73
(dp542
g81
I3
ssg82
g536
sg75
(lp543
S''
asbasbasbag68
(g84
g70
NtRp544
(dp545
g73
(dp546
sg82
g500
sg75
(lp547
g68
(g89
g70
NtRp548
(dp549
g73
(dp550
g93
g94
ssg82
g544
sg75
(lp551
g360
asbag68
(g89
g70
NtRp552
(dp553
g73
(dp554
g100
g101
ssg82
g544
sg75
(lp555
S':'
asbag68
(g89
g70
NtRp556
(dp557
g73
(dp558
sg82
g544
sg75
(lp559
g68
(g69
g70
NtRp560
(dp561
g73
(dp562
g81
I3
ssg82
g556
sg75
(lp563
S''
asbasbasbag68
(g84
g70
NtRp564
(dp565
g73
(dp566
sg82
g500
sg75
(lp567
g68
(g89
g70
NtRp568
(dp569
g73
(dp570
g93
g94
ssg82
g564
sg75
(lp571
g381
asbag68
(g89
g70
NtRp572
(dp573
g73
(dp574
g100
g101
ssg82
g564
sg75
(lp575
S':'
asbag68
(g89
g70
NtRp576
(dp577
g73
(dp578
sg82
g564
sg75
(lp579
g68
(g69
g70
NtRp580
(dp581
g73
(dp582
g81
I3
ssg82
g576
sg75
(lp583
S''
asbasbasbag68
(g84
g70
NtRp584
(dp585
g73
(dp586
sg82
g500
sg75
(lp587
g68
(g89
g70
NtRp588
(dp589
g73
(dp590
g93
g94
ssg82
g584
sg75
(lp591
g402
asbag68
(g89
g70
NtRp592
(dp593
g73
(dp594
g100
g101
ssg82
g584
sg75
(lp595
S':'
asbag68
(g89
g70
NtRp596
(dp597
g73
(dp598
sg82
g584
sg75
(lp599
g68
(g69
g70
NtRp600
(dp601
g73
(dp602
g81
I3
ssg82
g596
sg75
(lp603
S''
asbasbasbag68
(g84
g70
NtRp604
(dp605
g73
(dp606
sg82
g500
sg75
(lp607
g68
(g89
g70
NtRp608
(dp609
g73
(dp610
g93
g94
ssg82
g604
sg75
(lp611
g423
asbag68
(g89
g70
NtRp612
(dp613
g73
(dp614
g100
g101
ssg82
g604
sg75
(lp615
S':'
asbag68
(g89
g70
NtRp616
(dp617
g73
(dp618
sg82
g604
sg75
(lp619
g68
(g69
g70
NtRp620
(dp621
g73
(dp622
g81
I3
ssg82
g616
sg75
(lp623
S''
asbasbasbag68
(g84
g70
NtRp624
(dp625
g73
(dp626
sg82
g500
sg75
(lp627
g68
(g89
g70
NtRp628
(dp629
g73
(dp630
g93
g94
ssg82
g624
sg75
(lp631
g444
asbag68
(g89
g70
NtRp632
(dp633
g73
(dp634
g100
g101
ssg82
g624
sg75
(lp635
S':'
asbag68
(g89
g70
NtRp636
(dp637
g73
(dp638
sg82
g624
sg75
(lp639
g68
(g69
g70
NtRp640
(dp641
g73
(dp642
g81
I3
ssg82
g636
sg75
(lp643
S''
asbasbasbag68
(g84
g70
NtRp644
(dp645
g73
(dp646
sg82
g500
sg75
(lp647
g68
(g89
g70
NtRp648
(dp649
g73
(dp650
g93
g94
ssg82
g644
sg75
(lp651
g465
asbag68
(g89
g70
NtRp652
(dp653
g73
(dp654
g100
g101
ssg82
g644
sg75
(lp655
S':'
asbag68
(g89
g70
NtRp656
(dp657
g73
(dp658
sg82
g644
sg75
(lp659
g68
(g69
g70
NtRp660
(dp661
g73
(dp662
g81
I3
ssg82
g656
sg75
(lp663
S''
asbasbasbasbasbasbasbasbasbasbasbag68
(g84
g70
NtRp664
(dp665
g73
(dp666
sg82
g78
sg75
(lp667
g68
(g89
g70
NtRp668
(dp669
g73
(dp670
g93
g94
ssg82
g664
sg75
(lp671
S'env'
p672
asbag68
(g89
g70
NtRp673
(dp674
g73
(dp675
g100
g101
ssg82
g664
sg75
(lp676
S':'
asbag68
(g89
g70
NtRp677
(dp678
g73
(dp679
sg82
g664
sg75
(lp680
g68
(g69
g70
NtRp681
(dp682
g73
(dp683
g81
I5
ssg82
g677
sg75
(lp684
g68
(g77
g70
NtRp685
(dp686
g73
(dp687
g81
I4
ssg82
Nsg75
(lp688
g68
(g84
g70
NtRp689
(dp690
g73
(dp691
sg82
g685
sg75
(lp692
g68
(g89
g70
NtRp693
(dp694
g73
(dp695
g93
g94
ssg82
g689
sg75
(lp696
S'app_folders'
p697
asbag68
(g89
g70
NtRp698
(dp699
g73
(dp700
g100
g101
ssg82
g689
sg75
(lp701
S':'
asbag68
(g89
g70
NtRp702
(dp703
g73
(dp704
sg82
g689
sg75
(lp705
g68
(g69
g70
NtRp706
(dp707
g73
(dp708
g81
I4
ssg82
g702
sg75
(lp709
S"set(['/home/shipra/Desktop/Semester 1.2/ITWS-2/web2py/applications/shipra/', '/home/shipra/Desktop/Semester 1.2/ITWS-2/web2py/applications/welcome/'])"
p710
asbasbasbag68
(g84
g70
NtRp711
(dp712
g73
(dp713
sg82
g685
sg75
(lp714
g68
(g89
g70
NtRp715
(dp716
g73
(dp717
g93
g94
ssg82
g711
sg75
(lp718
S'applications_parent'
p719
asbag68
(g89
g70
NtRp720
(dp721
g73
(dp722
g100
g101
ssg82
g711
sg75
(lp723
S':'
asbag68
(g89
g70
NtRp724
(dp725
g73
(dp726
sg82
g711
sg75
(lp727
g68
(g69
g70
NtRp728
(dp729
g73
(dp730
g81
I4
ssg82
g724
sg75
(lp731
S'/home/shipra/Desktop/Semester 1.2/ITWS-2/web2py'
p732
asbasbasbag68
(g84
g70
NtRp733
(dp734
g73
(dp735
sg82
g685
sg75
(lp736
g68
(g89
g70
NtRp737
(dp738
g73
(dp739
g93
g94
ssg82
g733
sg75
(lp740
S'cmd_args'
p741
asbag68
(g89
g70
NtRp742
(dp743
g73
(dp744
g100
g101
ssg82
g733
sg75
(lp745
S':'
asbag68
(g89
g70
NtRp746
(dp747
g73
(dp748
sg82
g733
sg75
(lp749
g68
(g69
g70
NtRp750
(dp751
g73
(dp752
g81
I4
ssg82
g746
sg75
(lp753
g68
(g77
g70
NtRp754
(dp755
g73
(dp756
g81
I3
ssg82
Nsg75
(lp757
sbasbasbasbag68
(g84
g70
NtRp758
(dp759
g73
(dp760
sg82
g685
sg75
(lp761
g68
(g89
g70
NtRp762
(dp763
g73
(dp764
g93
g94
ssg82
g758
sg75
(lp765
S'cmd_options'
p766
asbag68
(g89
g70
NtRp767
(dp768
g73
(dp769
g100
g101
ssg82
g758
sg75
(lp770
S':'
asbag68
(g89
g70
NtRp771
(dp772
g73
(dp773
sg82
g758
sg75
(lp774
g68
(g69
g70
NtRp775
(dp776
g73
(dp777
g81
I4
ssg82
g771
sg75
(lp778
S"<Values at 0x2611248: {'verbose': False, 'ip': '127.0.0.1', 'with_scheduler': False, 'ips': ['192.168.122.1'], 'shutdown_timeout': 5, 'taskbar': False, 'port': 8000, 'maxthreads': None, 'softcron': False, 'server_name': 'shipra', 'bpython': False, 'nogui': False, 'pid_filename': 'httpserver.pid', 'extcron': False, 'runcron': False, 'run_system_tests': False, 'test': None, 'folder': '/home/shipra/Desktop/Semester 1.2/ITWS-2/web2py', 'config': '', 'minthreads': None, 'winservice': '', 'shell': None, 'run': '', 'log_filename': 'httpserver.log', 'debuglevel': 30, 'args': [''], 'socket_timeout': 5, 'ssl_ca_certificate': None, 'scheduler': None, 'profiler_filename': None, 'ssl_private_key': '', 'scheduler_groups': None, 'password': '<ask>', 'request_queue_size': 5, 'ssl_certificate': '', 'cronjob': False, 'numthreads': None, 'quiet': False, 'interfaces': None, 'import_models': False, 'timeout': 10, 'plain': False, 'nobanner': False}>"
p779
asbasbasbag68
(g84
g70
NtRp780
(dp781
g73
(dp782
sg82
g685
sg75
(lp783
g68
(g89
g70
NtRp784
(dp785
g73
(dp786
g93
g94
ssg82
g780
sg75
(lp787
S'db_sessions'
p788
asbag68
(g89
g70
NtRp789
(dp790
g73
(dp791
g100
g101
ssg82
g780
sg75
(lp792
S':'
asbag68
(g89
g70
NtRp793
(dp794
g73
(dp795
sg82
g780
sg75
(lp796
g68
(g69
g70
NtRp797
(dp798
g73
(dp799
g81
I4
ssg82
g793
sg75
(lp800
S'set([])'
p801
asbasbasbag68
(g84
g70
NtRp802
(dp803
g73
(dp804
sg82
g685
sg75
(lp805
g68
(g89
g70
NtRp806
(dp807
g73
(dp808
g93
g94
ssg82
g802
sg75
(lp809
S'debugging'
p810
asbag68
(g89
g70
NtRp811
(dp812
g73
(dp813
g100
g101
ssg82
g802
sg75
(lp814
S':'
asbag68
(g89
g70
NtRp815
(dp816
g73
(dp817
sg82
g802
sg75
(lp818
g68
(g69
g70
NtRp819
(dp820
g73
(dp821
g81
I4
ssg82
g815
sg75
(lp822
g111
asbasbasbag68
(g84
g70
NtRp823
(dp824
g73
(dp825
sg82
g685
sg75
(lp826
g68
(g89
g70
NtRp827
(dp828
g73
(dp829
g93
g94
ssg82
g823
sg75
(lp830
S'gluon_parent'
p831
asbag68
(g89
g70
NtRp832
(dp833
g73
(dp834
g100
g101
ssg82
g823
sg75
(lp835
S':'
asbag68
(g89
g70
NtRp836
(dp837
g73
(dp838
sg82
g823
sg75
(lp839
g68
(g69
g70
NtRp840
(dp841
g73
(dp842
g81
I4
ssg82
g836
sg75
(lp843
S'/home/shipra/Desktop/Semester 1.2/ITWS-2/web2py'
p844
asbasbasbag68
(g84
g70
NtRp845
(dp846
g73
(dp847
sg82
g685
sg75
(lp848
g68
(g89
g70
NtRp849
(dp850
g73
(dp851
g93
g94
ssg82
g845
sg75
(lp852
S'http_accept'
p853
asbag68
(g89
g70
NtRp854
(dp855
g73
(dp856
g100
g101
ssg82
g845
sg75
(lp857
S':'
asbag68
(g89
g70
NtRp858
(dp859
g73
(dp860
sg82
g845
sg75
(lp861
g68
(g69
g70
NtRp862
(dp863
g73
(dp864
g81
I4
ssg82
g858
sg75
(lp865
S'text/html,application/xhtml+xml,application/xml;q=0.9,*/*;q=0.8'
p866
asbasbasbag68
(g84
g70
NtRp867
(dp868
g73
(dp869
sg82
g685
sg75
(lp870
g68
(g89
g70
NtRp871
(dp872
g73
(dp873
g93
g94
ssg82
g867
sg75
(lp874
S'http_accept_encoding'
p875
asbag68
(g89
g70
NtRp876
(dp877
g73
(dp878
g100
g101
ssg82
g867
sg75
(lp879
S':'
asbag68
(g89
g70
NtRp880
(dp881
g73
(dp882
sg82
g867
sg75
(lp883
g68
(g69
g70
NtRp884
(dp885
g73
(dp886
g81
I4
ssg82
g880
sg75
(lp887
S'gzip, deflate'
p888
asbasbasbag68
(g84
g70
NtRp889
(dp890
g73
(dp891
sg82
g685
sg75
(lp892
g68
(g89
g70
NtRp893
(dp894
g73
(dp895
g93
g94
ssg82
g889
sg75
(lp896
S'http_accept_language'
p897
asbag68
(g89
g70
NtRp898
(dp899
g73
(dp900
g100
g101
ssg82
g889
sg75
(lp901
S':'
asbag68
(g89
g70
NtRp902
(dp903
g73
(dp904
sg82
g889
sg75
(lp905
g68
(g69
g70
NtRp906
(dp907
g73
(dp908
g81
I4
ssg82
g902
sg75
(lp909
S'en-us,en;q=0.5'
p910
asbasbasbag68
(g84
g70
NtRp911
(dp912
g73
(dp913
sg82
g685
sg75
(lp914
g68
(g89
g70
NtRp915
(dp916
g73
(dp917
g93
g94
ssg82
g911
sg75
(lp918
S'http_connection'
p919
asbag68
(g89
g70
NtRp920
(dp921
g73
(dp922
g100
g101
ssg82
g911
sg75
(lp923
S':'
asbag68
(g89
g70
NtRp924
(dp925
g73
(dp926
sg82
g911
sg75
(lp927
g68
(g69
g70
NtRp928
(dp929
g73
(dp930
g81
I4
ssg82
g924
sg75
(lp931
S'keep-alive'
p932
asbasbasbag68
(g84
g70
NtRp933
(dp934
g73
(dp935
sg82
g685
sg75
(lp936
g68
(g89
g70
NtRp937
(dp938
g73
(dp939
g93
g94
ssg82
g933
sg75
(lp940
S'http_cookie'
p941
asbag68
(g89
g70
NtRp942
(dp943
g73
(dp944
g100
g101
ssg82
g933
sg75
(lp945
S':'
asbag68
(g89
g70
NtRp946
(dp947
g73
(dp948
sg82
g933
sg75
(lp949
g68
(g69
g70
NtRp950
(dp951
g73
(dp952
g81
I4
ssg82
g946
sg75
(lp953
S'__utma=96992031.1334412862.1364672878.1364672878.1364718243.2; __utmz=96992031.1364672878.1.1.utmcsr=(direct)|utmccn=(direct)|utmcmd=(none); __lc.visitor_id.1195381=S1364672235.4faffcf2d2; __ar_v4=OWHSPOGHTNEIPPPBMHVFTA%3A20130329%3A12%7CAMEDRHI4VZG4TIA2AZ565D%3A20130329%3A12%7CWAEQXC4B2NH3DDBR3TZM6I%3A20130329%3A12; mp_2093ad9ff9c5428a2228386de2f2b0e4_mixpanel=%7B%22distinct_id%22%3A%20%2262ffc2d0-7b9f-0130-efb0-22000a1cbb2a%22%2C%22is_registered_user%22%3A%20false%2C%22%24initial_referrer%22%3A%20%22%24direct%22%2C%22%24initial_referring_domain%22%3A%20%22%24direct%22%7D; session_id_welcome=127.0.0.1-bac479ef-22ec-41f7-a43d-cc54391f583c'
p954
asbasbasbag68
(g84
g70
NtRp955
(dp956
g73
(dp957
sg82
g685
sg75
(lp958
g68
(g89
g70
NtRp959
(dp960
g73
(dp961
g93
g94
ssg82
g955
sg75
(lp962
S'http_host'
p963
asbag68
(g89
g70
NtRp964
(dp965
g73
(dp966
g100
g101
ssg82
g955
sg75
(lp967
S':'
asbag68
(g89
g70
NtRp968
(dp969
g73
(dp970
sg82
g955
sg75
(lp971
g68
(g69
g70
NtRp972
(dp973
g73
(dp974
g81
I4
ssg82
g968
sg75
(lp975
S'127.0.0.1:8000'
p976
asbasbasbag68
(g84
g70
NtRp977
(dp978
g73
(dp979
sg82
g685
sg75
(lp980
g68
(g89
g70
NtRp981
(dp982
g73
(dp983
g93
g94
ssg82
g977
sg75
(lp984
S'http_user_agent'
p985
asbag68
(g89
g70
NtRp986
(dp987
g73
(dp988
g100
g101
ssg82
g977
sg75
(lp989
S':'
asbag68
(g89
g70
NtRp990
(dp991
g73
(dp992
sg82
g977
sg75
(lp993
g68
(g69
g70
NtRp994
(dp995
g73
(dp996
g81
I4
ssg82
g990
sg75
(lp997
S'Mozilla/5.0 (X11; Linux x86_64; rv:12.0) Gecko/20100101 Firefox/12.0'
p998
asbasbasbag68
(g84
g70
NtRp999
(dp1000
g73
(dp1001
sg82
g685
sg75
(lp1002
g68
(g89
g70
NtRp1003
(dp1004
g73
(dp1005
g93
g94
ssg82
g999
sg75
(lp1006
S'is_jython'
p1007
asbag68
(g89
g70
NtRp1008
(dp1009
g73
(dp1010
g100
g101
ssg82
g999
sg75
(lp1011
S':'
asbag68
(g89
g70
NtRp1012
(dp1013
g73
(dp1014
sg82
g999
sg75
(lp1015
g68
(g69
g70
NtRp1016
(dp1017
g73
(dp1018
g81
I4
ssg82
g1012
sg75
(lp1019
g111
asbasbasbag68
(g84
g70
NtRp1020
(dp1021
g73
(dp1022
sg82
g685
sg75
(lp1023
g68
(g89
g70
NtRp1024
(dp1025
g73
(dp1026
g93
g94
ssg82
g1020
sg75
(lp1027
S'is_pypy'
p1028
asbag68
(g89
g70
NtRp1029
(dp1030
g73
(dp1031
g100
g101
ssg82
g1020
sg75
(lp1032
S':'
asbag68
(g89
g70
NtRp1033
(dp1034
g73
(dp1035
sg82
g1020
sg75
(lp1036
g68
(g69
g70
NtRp1037
(dp1038
g73
(dp1039
g81
I4
ssg82
g1033
sg75
(lp1040
g111
asbasbasbag68
(g84
g70
NtRp1041
(dp1042
g73
(dp1043
sg82
g685
sg75
(lp1044
g68
(g89
g70
NtRp1045
(dp1046
g73
(dp1047
g93
g94
ssg82
g1041
sg75
(lp1048
S'local_hosts'
p1049
asbag68
(g89
g70
NtRp1050
(dp1051
g73
(dp1052
g100
g101
ssg82
g1041
sg75
(lp1053
S':'
asbag68
(g89
g70
NtRp1054
(dp1055
g73
(dp1056
sg82
g1041
sg75
(lp1057
g68
(g69
g70
NtRp1058
(dp1059
g73
(dp1060
g81
I4
ssg82
g1054
sg75
(lp1061
g68
(g77
g70
NtRp1062
(dp1063
g73
(dp1064
g81
I3
ssg82
Nsg75
(lp1065
g68
(g84
g70
NtRp1066
(dp1067
g73
(dp1068
sg82
g1062
sg75
(lp1069
g68
(g89
g70
NtRp1070
(dp1071
g73
(dp1072
sg82
g1066
sg75
(lp1073
g68
(g69
g70
NtRp1074
(dp1075
g73
(dp1076
g81
I3
ssg82
g1070
sg75
(lp1077
S'::1'
p1078
asbasbasbag68
(g84
g70
NtRp1079
(dp1080
g73
(dp1081
sg82
g1062
sg75
(lp1082
g68
(g89
g70
NtRp1083
(dp1084
g73
(dp1085
sg82
g1079
sg75
(lp1086
g68
(g69
g70
NtRp1087
(dp1088
g73
(dp1089
g81
I3
ssg82
g1083
sg75
(lp1090
S'192.168.122.1'
p1091
asbasbasbag68
(g84
g70
NtRp1092
(dp1093
g73
(dp1094
sg82
g1062
sg75
(lp1095
g68
(g89
g70
NtRp1096
(dp1097
g73
(dp1098
sg82
g1092
sg75
(lp1099
g68
(g69
g70
NtRp1100
(dp1101
g73
(dp1102
g81
I3
ssg82
g1096
sg75
(lp1103
S'::ffff:127.0.0.1'
p1104
asbasbasbag68
(g84
g70
NtRp1105
(dp1106
g73
(dp1107
sg82
g1062
sg75
(lp1108
g68
(g89
g70
NtRp1109
(dp1110
g73
(dp1111
sg82
g1105
sg75
(lp1112
g68
(g69
g70
NtRp1113
(dp1114
g73
(dp1115
g81
I3
ssg82
g1109
sg75
(lp1116
S'127.0.0.1'
p1117
asbasbasbag68
(g84
g70
NtRp1118
(dp1119
g73
(dp1120
sg82
g1062
sg75
(lp1121
g68
(g89
g70
NtRp1122
(dp1123
g73
(dp1124
sg82
g1118
sg75
(lp1125
g68
(g69
g70
NtRp1126
(dp1127
g73
(dp1128
g81
I3
ssg82
g1122
sg75
(lp1129
S'shipra'
p1130
asbasbasbasbasbasbasbag68
(g84
g70
NtRp1131
(dp1132
g73
(dp1133
sg82
g685
sg75
(lp1134
g68
(g89
g70
NtRp1135
(dp1136
g73
(dp1137
g93
g94
ssg82
g1131
sg75
(lp1138
S'path_info'
p1139
asbag68
(g89
g70
NtRp1140
(dp1141
g73
(dp1142
g100
g101
ssg82
g1131
sg75
(lp1143
S':'
asbag68
(g89
g70
NtRp1144
(dp1145
g73
(dp1146
sg82
g1131
sg75
(lp1147
g68
(g69
g70
NtRp1148
(dp1149
g73
(dp1150
g81
I4
ssg82
g1144
sg75
(lp1151
S'/shipra/default/user/login'
p1152
asbasbasbag68
(g84
g70
NtRp1153
(dp1154
g73
(dp1155
sg82
g685
sg75
(lp1156
g68
(g89
g70
NtRp1157
(dp1158
g73
(dp1159
g93
g94
ssg82
g1153
sg75
(lp1160
S'query_string'
p1161
asbag68
(g89
g70
NtRp1162
(dp1163
g73
(dp1164
g100
g101
ssg82
g1153
sg75
(lp1165
S':'
asbag68
(g89
g70
NtRp1166
(dp1167
g73
(dp1168
sg82
g1153
sg75
(lp1169
g68
(g69
g70
NtRp1170
(dp1171
g73
(dp1172
g81
I4
ssg82
g1166
sg75
(lp1173
S''
asbasbasbag68
(g84
g70
NtRp1174
(dp1175
g73
(dp1176
sg82
g685
sg75
(lp1177
g68
(g89
g70
NtRp1178
(dp1179
g73
(dp1180
g93
g94
ssg82
g1174
sg75
(lp1181
S'remote_addr'
p1182
asbag68
(g89
g70
NtRp1183
(dp1184
g73
(dp1185
g100
g101
ssg82
g1174
sg75
(lp1186
S':'
asbag68
(g89
g70
NtRp1187
(dp1188
g73
(dp1189
sg82
g1174
sg75
(lp1190
g68
(g69
g70
NtRp1191
(dp1192
g73
(dp1193
g81
I4
ssg82
g1187
sg75
(lp1194
g236
asbasbasbag68
(g84
g70
NtRp1195
(dp1196
g73
(dp1197
sg82
g685
sg75
(lp1198
g68
(g89
g70
NtRp1199
(dp1200
g73
(dp1201
g93
g94
ssg82
g1195
sg75
(lp1202
S'remote_port'
p1203
asbag68
(g89
g70
NtRp1204
(dp1205
g73
(dp1206
g100
g101
ssg82
g1195
sg75
(lp1207
S':'
asbag68
(g89
g70
NtRp1208
(dp1209
g73
(dp1210
sg82
g1195
sg75
(lp1211
g68
(g69
g70
NtRp1212
(dp1213
g73
(dp1214
g81
I4
ssg82
g1208
sg75
(lp1215
S'46757'
p1216
asbasbasbag68
(g84
g70
NtRp1217
(dp1218
g73
(dp1219
sg82
g685
sg75
(lp1220
g68
(g89
g70
NtRp1221
(dp1222
g73
(dp1223
g93
g94
ssg82
g1217
sg75
(lp1224
S'request_method'
p1225
asbag68
(g89
g70
NtRp1226
(dp1227
g73
(dp1228
g100
g101
ssg82
g1217
sg75
(lp1229
S':'
asbag68
(g89
g70
NtRp1230
(dp1231
g73
(dp1232
sg82
g1217
sg75
(lp1233
g68
(g69
g70
NtRp1234
(dp1235
g73
(dp1236
g81
I4
ssg82
g1230
sg75
(lp1237
S'GET'
p1238
asbasbasbag68
(g84
g70
NtRp1239
(dp1240
g73
(dp1241
sg82
g685
sg75
(lp1242
g68
(g89
g70
NtRp1243
(dp1244
g73
(dp1245
g93
g94
ssg82
g1239
sg75
(lp1246
S'request_uri'
p1247
asbag68
(g89
g70
NtRp1248
(dp1249
g73
(dp1250
g100
g101
ssg82
g1239
sg75
(lp1251
S':'
asbag68
(g89
g70
NtRp1252
(dp1253
g73
(dp1254
sg82
g1239
sg75
(lp1255
g68
(g69
g70
NtRp1256
(dp1257
g73
(dp1258
g81
I4
ssg82
g1252
sg75
(lp1259
g1152
asbasbasbag68
(g84
g70
NtRp1260
(dp1261
g73
(dp1262
sg82
g685
sg75
(lp1263
g68
(g89
g70
NtRp1264
(dp1265
g73
(dp1266
g93
g94
ssg82
g1260
sg75
(lp1267
S'script_name'
p1268
asbag68
(g89
g70
NtRp1269
(dp1270
g73
(dp1271
g100
g101
ssg82
g1260
sg75
(lp1272
S':'
asbag68
(g89
g70
NtRp1273
(dp1274
g73
(dp1275
sg82
g1260
sg75
(lp1276
g68
(g69
g70
NtRp1277
(dp1278
g73
(dp1279
g81
I4
ssg82
g1273
sg75
(lp1280
S''
asbasbasbag68
(g84
g70
NtRp1281
(dp1282
g73
(dp1283
sg82
g685
sg75
(lp1284
g68
(g89
g70
NtRp1285
(dp1286
g73
(dp1287
g93
g94
ssg82
g1281
sg75
(lp1288
S'server_name'
p1289
asbag68
(g89
g70
NtRp1290
(dp1291
g73
(dp1292
g100
g101
ssg82
g1281
sg75
(lp1293
S':'
asbag68
(g89
g70
NtRp1294
(dp1295
g73
(dp1296
sg82
g1281
sg75
(lp1297
g68
(g69
g70
NtRp1298
(dp1299
g73
(dp1300
g81
I4
ssg82
g1294
sg75
(lp1301
S'shipra'
p1302
asbasbasbag68
(g84
g70
NtRp1303
(dp1304
g73
(dp1305
sg82
g685
sg75
(lp1306
g68
(g89
g70
NtRp1307
(dp1308
g73
(dp1309
g93
g94
ssg82
g1303
sg75
(lp1310
S'server_port'
p1311
asbag68
(g89
g70
NtRp1312
(dp1313
g73
(dp1314
g100
g101
ssg82
g1303
sg75
(lp1315
S':'
asbag68
(g89
g70
NtRp1316
(dp1317
g73
(dp1318
sg82
g1303
sg75
(lp1319
g68
(g69
g70
NtRp1320
(dp1321
g73
(dp1322
g81
I4
ssg82
g1316
sg75
(lp1323
S'8000'
p1324
asbasbasbag68
(g84
g70
NtRp1325
(dp1326
g73
(dp1327
sg82
g685
sg75
(lp1328
g68
(g89
g70
NtRp1329
(dp1330
g73
(dp1331
g93
g94
ssg82
g1325
sg75
(lp1332
S'server_protocol'
p1333
asbag68
(g89
g70
NtRp1334
(dp1335
g73
(dp1336
g100
g101
ssg82
g1325
sg75
(lp1337
S':'
asbag68
(g89
g70
NtRp1338
(dp1339
g73
(dp1340
sg82
g1325
sg75
(lp1341
g68
(g69
g70
NtRp1342
(dp1343
g73
(dp1344
g81
I4
ssg82
g1338
sg75
(lp1345
S'HTTP/1.1'
p1346
asbasbasbag68
(g84
g70
NtRp1347
(dp1348
g73
(dp1349
sg82
g685
sg75
(lp1350
g68
(g89
g70
NtRp1351
(dp1352
g73
(dp1353
g93
g94
ssg82
g1347
sg75
(lp1354
S'server_software'
p1355
asbag68
(g89
g70
NtRp1356
(dp1357
g73
(dp1358
g100
g101
ssg82
g1347
sg75
(lp1359
S':'
asbag68
(g89
g70
NtRp1360
(dp1361
g73
(dp1362
sg82
g1347
sg75
(lp1363
g68
(g69
g70
NtRp1364
(dp1365
g73
(dp1366
g81
I4
ssg82
g1360
sg75
(lp1367
S'Rocket 1.2.6'
p1368
asbasbasbag68
(g84
g70
NtRp1369
(dp1370
g73
(dp1371
sg82
g685
sg75
(lp1372
g68
(g89
g70
NtRp1373
(dp1374
g73
(dp1375
g93
g94
ssg82
g1369
sg75
(lp1376
S'web2py_path'
p1377
asbag68
(g89
g70
NtRp1378
(dp1379
g73
(dp1380
g100
g101
ssg82
g1369
sg75
(lp1381
S':'
asbag68
(g89
g70
NtRp1382
(dp1383
g73
(dp1384
sg82
g1369
sg75
(lp1385
g68
(g69
g70
NtRp1386
(dp1387
g73
(dp1388
g81
I4
ssg82
g1382
sg75
(lp1389
g732
asbasbasbag68
(g84
g70
NtRp1390
(dp1391
g73
(dp1392
sg82
g685
sg75
(lp1393
g68
(g89
g70
NtRp1394
(dp1395
g73
(dp1396
g93
g94
ssg82
g1390
sg75
(lp1397
S'web2py_version'
p1398
asbag68
(g89
g70
NtRp1399
(dp1400
g73
(dp1401
g100
g101
ssg82
g1390
sg75
(lp1402
S':'
asbag68
(g89
g70
NtRp1403
(dp1404
g73
(dp1405
sg82
g1390
sg75
(lp1406
g68
(g69
g70
NtRp1407
(dp1408
g73
(dp1409
g81
I4
ssg82
g1403
sg75
(lp1410
g68
(g77
g70
NtRp1411
(dp1412
g73
(dp1413
g81
I3
ssg82
Nsg75
(lp1414
g68
(g84
g70
NtRp1415
(dp1416
g73
(dp1417
sg82
g1411
sg75
(lp1418
g68
(g89
g70
NtRp1419
(dp1420
g73
(dp1421
sg82
g1415
sg75
(lp1422
g68
(g69
g70
NtRp1423
(dp1424
g73
(dp1425
g81
I3
ssg82
g1419
sg75
(lp1426
S'2'
asbasbasbag68
(g84
g70
NtRp1427
(dp1428
g73
(dp1429
sg82
g1411
sg75
(lp1430
g68
(g89
g70
NtRp1431
(dp1432
g73
(dp1433
sg82
g1427
sg75
(lp1434
g68
(g69
g70
NtRp1435
(dp1436
g73
(dp1437
g81
I3
ssg82
g1431
sg75
(lp1438
S'3'
asbasbasbag68
(g84
g70
NtRp1439
(dp1440
g73
(dp1441
sg82
g1411
sg75
(lp1442
g68
(g89
g70
NtRp1443
(dp1444
g73
(dp1445
sg82
g1439
sg75
(lp1446
g68
(g69
g70
NtRp1447
(dp1448
g73
(dp1449
g81
I3
ssg82
g1443
sg75
(lp1450
S'2'
asbasbasbag68
(g84
g70
NtRp1451
(dp1452
g73
(dp1453
sg82
g1411
sg75
(lp1454
g68
(g89
g70
NtRp1455
(dp1456
g73
(dp1457
sg82
g1451
sg75
(lp1458
g68
(g69
g70
NtRp1459
(dp1460
g73
(dp1461
g81
I3
ssg82
g1455
sg75
(lp1462
S'datetime.datetime(2012, 12, 17, 15, 3, 30)'
p1463
asbasbasbag68
(g84
g70
NtRp1464
(dp1465
g73
(dp1466
sg82
g1411
sg75
(lp1467
g68
(g89
g70
NtRp1468
(dp1469
g73
(dp1470
sg82
g1464
sg75
(lp1471
g68
(g69
g70
NtRp1472
(dp1473
g73
(dp1474
g81
I3
ssg82
g1468
sg75
(lp1475
S'stable'
p1476
asbasbasbasbasbasbasbag68
(g84
g70
NtRp1477
(dp1478
g73
(dp1479
sg82
g685
sg75
(lp1480
g68
(g89
g70
NtRp1481
(dp1482
g73
(dp1483
g93
g94
ssg82
g1477
sg75
(lp1484
S'wsgi_errors'
p1485
asbag68
(g89
g70
NtRp1486
(dp1487
g73
(dp1488
g100
g101
ssg82
g1477
sg75
(lp1489
S':'
asbag68
(g89
g70
NtRp1490
(dp1491
g73
(dp1492
sg82
g1477
sg75
(lp1493
g68
(g69
g70
NtRp1494
(dp1495
g73
(dp1496
g81
I4
ssg82
g1490
sg75
(lp1497
S"<open file '<stderr>', mode 'w' at 0x7f813e4ad270>"
p1498
asbasbasbag68
(g84
g70
NtRp1499
(dp1500
g73
(dp1501
sg82
g685
sg75
(lp1502
g68
(g89
g70
NtRp1503
(dp1504
g73
(dp1505
g93
g94
ssg82
g1499
sg75
(lp1506
S'wsgi_file_wrapper'
p1507
asbag68
(g89
g70
NtRp1508
(dp1509
g73
(dp1510
g100
g101
ssg82
g1499
sg75
(lp1511
S':'
asbag68
(g89
g70
NtRp1512
(dp1513
g73
(dp1514
sg82
g1499
sg75
(lp1515
g68
(g69
g70
NtRp1516
(dp1517
g73
(dp1518
g81
I4
ssg82
g1512
sg75
(lp1519
S'<class wsgiref.util.FileWrapper at 0x259adb8>'
p1520
asbasbasbag68
(g84
g70
NtRp1521
(dp1522
g73
(dp1523
sg82
g685
sg75
(lp1524
g68
(g89
g70
NtRp1525
(dp1526
g73
(dp1527
g93
g94
ssg82
g1521
sg75
(lp1528
S'wsgi_input'
p1529
asbag68
(g89
g70
NtRp1530
(dp1531
g73
(dp1532
g100
g101
ssg82
g1521
sg75
(lp1533
S':'
asbag68
(g89
g70
NtRp1534
(dp1535
g73
(dp1536
sg82
g1521
sg75
(lp1537
g68
(g69
g70
NtRp1538
(dp1539
g73
(dp1540
g81
I4
ssg82
g1534
sg75
(lp1541
S'<socket._fileobject object at 0x7f8128364050>'
p1542
asbasbasbag68
(g84
g70
NtRp1543
(dp1544
g73
(dp1545
sg82
g685
sg75
(lp1546
g68
(g89
g70
NtRp1547
(dp1548
g73
(dp1549
g93
g94
ssg82
g1543
sg75
(lp1550
S'wsgi_multiprocess'
p1551
asbag68
(g89
g70
NtRp1552
(dp1553
g73
(dp1554
g100
g101
ssg82
g1543
sg75
(lp1555
S':'
asbag68
(g89
g70
NtRp1556
(dp1557
g73
(dp1558
sg82
g1543
sg75
(lp1559
g68
(g69
g70
NtRp1560
(dp1561
g73
(dp1562
g81
I4
ssg82
g1556
sg75
(lp1563
g111
asbasbasbag68
(g84
g70
NtRp1564
(dp1565
g73
(dp1566
sg82
g685
sg75
(lp1567
g68
(g89
g70
NtRp1568
(dp1569
g73
(dp1570
g93
g94
ssg82
g1564
sg75
(lp1571
S'wsgi_multithread'
p1572
asbag68
(g89
g70
NtRp1573
(dp1574
g73
(dp1575
g100
g101
ssg82
g1564
sg75
(lp1576
S':'
asbag68
(g89
g70
NtRp1577
(dp1578
g73
(dp1579
sg82
g1564
sg75
(lp1580
g68
(g69
g70
NtRp1581
(dp1582
g73
(dp1583
g81
I4
ssg82
g1577
sg75
(lp1584
S'True'
p1585
asbasbasbag68
(g84
g70
NtRp1586
(dp1587
g73
(dp1588
sg82
g685
sg75
(lp1589
g68
(g89
g70
NtRp1590
(dp1591
g73
(dp1592
g93
g94
ssg82
g1586
sg75
(lp1593
S'wsgi_run_once'
p1594
asbag68
(g89
g70
NtRp1595
(dp1596
g73
(dp1597
g100
g101
ssg82
g1586
sg75
(lp1598
S':'
asbag68
(g89
g70
NtRp1599
(dp1600
g73
(dp1601
sg82
g1586
sg75
(lp1602
g68
(g69
g70
NtRp1603
(dp1604
g73
(dp1605
g81
I4
ssg82
g1599
sg75
(lp1606
g111
asbasbasbag68
(g84
g70
NtRp1607
(dp1608
g73
(dp1609
sg82
g685
sg75
(lp1610
g68
(g89
g70
NtRp1611
(dp1612
g73
(dp1613
g93
g94
ssg82
g1607
sg75
(lp1614
S'wsgi_url_scheme'
p1615
asbag68
(g89
g70
NtRp1616
(dp1617
g73
(dp1618
g100
g101
ssg82
g1607
sg75
(lp1619
S':'
asbag68
(g89
g70
NtRp1620
(dp1621
g73
(dp1622
sg82
g1607
sg75
(lp1623
g68
(g69
g70
NtRp1624
(dp1625
g73
(dp1626
g81
I4
ssg82
g1620
sg75
(lp1627
S'http'
p1628
asbasbasbag68
(g84
g70
NtRp1629
(dp1630
g73
(dp1631
sg82
g685
sg75
(lp1632
g68
(g89
g70
NtRp1633
(dp1634
g73
(dp1635
g93
g94
ssg82
g1629
sg75
(lp1636
S'wsgi_version'
p1637
asbag68
(g89
g70
NtRp1638
(dp1639
g73
(dp1640
g100
g101
ssg82
g1629
sg75
(lp1641
S':'
asbag68
(g89
g70
NtRp1642
(dp1643
g73
(dp1644
sg82
g1629
sg75
(lp1645
g68
(g69
g70
NtRp1646
(dp1647
g73
(dp1648
g81
I4
ssg82
g1642
sg75
(lp1649
g68
(g77
g70
NtRp1650
(dp1651
g73
(dp1652
g81
I3
ssg82
Nsg75
(lp1653
g68
(g84
g70
NtRp1654
(dp1655
g73
(dp1656
sg82
g1650
sg75
(lp1657
g68
(g89
g70
NtRp1658
(dp1659
g73
(dp1660
sg82
g1654
sg75
(lp1661
g68
(g69
g70
NtRp1662
(dp1663
g73
(dp1664
g81
I3
ssg82
g1658
sg75
(lp1665
S'1'
asbasbasbag68
(g84
g70
NtRp1666
(dp1667
g73
(dp1668
sg82
g1650
sg75
(lp1669
g68
(g89
g70
NtRp1670
(dp1671
g73
(dp1672
sg82
g1666
sg75
(lp1673
g68
(g69
g70
NtRp1674
(dp1675
g73
(dp1676
g81
I3
ssg82
g1670
sg75
(lp1677
S'0'
asbasbasbasbasbasbasbasbasbasbasbag68
(g84
g70
NtRp1678
(dp1679
g73
(dp1680
sg82
g78
sg75
(lp1681
g68
(g89
g70
NtRp1682
(dp1683
g73
(dp1684
g93
g94
ssg82
g1678
sg75
(lp1685
S'extension'
p1686
asbag68
(g89
g70
NtRp1687
(dp1688
g73
(dp1689
g100
g101
ssg82
g1678
sg75
(lp1690
S':'
asbag68
(g89
g70
NtRp1691
(dp1692
g73
(dp1693
sg82
g1678
sg75
(lp1694
g68
(g69
g70
NtRp1695
(dp1696
g73
(dp1697
g81
I5
ssg82
g1691
sg75
(lp1698
S'html'
p1699
asbasbasbag68
(g84
g70
NtRp1700
(dp1701
g73
(dp1702
sg82
g78
sg75
(lp1703
g68
(g89
g70
NtRp1704
(dp1705
g73
(dp1706
g93
g94
ssg82
g1700
sg75
(lp1707
S'folder'
p1708
asbag68
(g89
g70
NtRp1709
(dp1710
g73
(dp1711
g100
g101
ssg82
g1700
sg75
(lp1712
S':'
asbag68
(g89
g70
NtRp1713
(dp1714
g73
(dp1715
sg82
g1700
sg75
(lp1716
g68
(g69
g70
NtRp1717
(dp1718
g73
(dp1719
g81
I5
ssg82
g1713
sg75
(lp1720
S'/home/shipra/Desktop/Semester 1.2/ITWS-2/web2py/applications/shipra/'
p1721
asbasbasbag68
(g84
g70
NtRp1722
(dp1723
g73
(dp1724
sg82
g78
sg75
(lp1725
g68
(g89
g70
NtRp1726
(dp1727
g73
(dp1728
g93
g94
ssg82
g1722
sg75
(lp1729
S'function'
p1730
asbag68
(g89
g70
NtRp1731
(dp1732
g73
(dp1733
g100
g101
ssg82
g1722
sg75
(lp1734
S':'
asbag68
(g89
g70
NtRp1735
(dp1736
g73
(dp1737
sg82
g1722
sg75
(lp1738
g68
(g69
g70
NtRp1739
(dp1740
g73
(dp1741
g81
I5
ssg82
g1735
sg75
(lp1742
S'user'
p1743
asbasbasbag68
(g84
g70
NtRp1744
(dp1745
g73
(dp1746
sg82
g78
sg75
(lp1747
g68
(g89
g70
NtRp1748
(dp1749
g73
(dp1750
g93
g94
ssg82
g1744
sg75
(lp1751
S'get_vars'
p1752
asbag68
(g89
g70
NtRp1753
(dp1754
g73
(dp1755
g100
g101
ssg82
g1744
sg75
(lp1756
S':'
asbag68
(g89
g70
NtRp1757
(dp1758
g73
(dp1759
sg82
g1744
sg75
(lp1760
g68
(g69
g70
NtRp1761
(dp1762
g73
(dp1763
g81
I5
ssg82
g1757
sg75
(lp1764
g68
(g77
g70
NtRp1765
(dp1766
g73
(dp1767
g81
I4
ssg82
Nsg75
(lp1768
sbasbasbasbag68
(g84
g70
NtRp1769
(dp1770
g73
(dp1771
sg82
g78
sg75
(lp1772
g68
(g89
g70
NtRp1773
(dp1774
g73
(dp1775
g93
g94
ssg82
g1769
sg75
(lp1776
S'global_settings'
p1777
asbag68
(g89
g70
NtRp1778
(dp1779
g73
(dp1780
g100
g101
ssg82
g1769
sg75
(lp1781
S':'
asbag68
(g89
g70
NtRp1782
(dp1783
g73
(dp1784
sg82
g1769
sg75
(lp1785
g68
(g69
g70
NtRp1786
(dp1787
g73
(dp1788
g81
I5
ssg82
g1782
sg75
(lp1789
g68
(g77
g70
NtRp1790
(dp1791
g73
(dp1792
g81
I4
ssg82
Nsg75
(lp1793
g68
(g84
g70
NtRp1794
(dp1795
g73
(dp1796
sg82
g1790
sg75
(lp1797
g68
(g89
g70
NtRp1798
(dp1799
g73
(dp1800
g93
g94
ssg82
g1794
sg75
(lp1801
g697
asbag68
(g89
g70
NtRp1802
(dp1803
g73
(dp1804
g100
g101
ssg82
g1794
sg75
(lp1805
S':'
asbag68
(g89
g70
NtRp1806
(dp1807
g73
(dp1808
sg82
g1794
sg75
(lp1809
g68
(g69
g70
NtRp1810
(dp1811
g73
(dp1812
g81
I4
ssg82
g1806
sg75
(lp1813
S"set(['/home/shipra/Desktop/Semester 1.2/ITWS-2/web2py/applications/shipra/', '/home/shipra/Desktop/Semester 1.2/ITWS-2/web2py/applications/welcome/'])"
p1814
asbasbasbag68
(g84
g70
NtRp1815
(dp1816
g73
(dp1817
sg82
g1790
sg75
(lp1818
g68
(g89
g70
NtRp1819
(dp1820
g73
(dp1821
g93
g94
ssg82
g1815
sg75
(lp1822
g719
asbag68
(g89
g70
NtRp1823
(dp1824
g73
(dp1825
g100
g101
ssg82
g1815
sg75
(lp1826
S':'
asbag68
(g89
g70
NtRp1827
(dp1828
g73
(dp1829
sg82
g1815
sg75
(lp1830
g68
(g69
g70
NtRp1831
(dp1832
g73
(dp1833
g81
I4
ssg82
g1827
sg75
(lp1834
g732
asbasbasbag68
(g84
g70
NtRp1835
(dp1836
g73
(dp1837
sg82
g1790
sg75
(lp1838
g68
(g89
g70
NtRp1839
(dp1840
g73
(dp1841
g93
g94
ssg82
g1835
sg75
(lp1842
g741
asbag68
(g89
g70
NtRp1843
(dp1844
g73
(dp1845
g100
g101
ssg82
g1835
sg75
(lp1846
S':'
asbag68
(g89
g70
NtRp1847
(dp1848
g73
(dp1849
sg82
g1835
sg75
(lp1850
g68
(g69
g70
NtRp1851
(dp1852
g73
(dp1853
g81
I4
ssg82
g1847
sg75
(lp1854
g68
(g77
g70
NtRp1855
(dp1856
g73
(dp1857
g81
I3
ssg82
Nsg75
(lp1858
sbasbasbasbag68
(g84
g70
NtRp1859
(dp1860
g73
(dp1861
sg82
g1790
sg75
(lp1862
g68
(g89
g70
NtRp1863
(dp1864
g73
(dp1865
g93
g94
ssg82
g1859
sg75
(lp1866
g766
asbag68
(g89
g70
NtRp1867
(dp1868
g73
(dp1869
g100
g101
ssg82
g1859
sg75
(lp1870
S':'
asbag68
(g89
g70
NtRp1871
(dp1872
g73
(dp1873
sg82
g1859
sg75
(lp1874
g68
(g69
g70
NtRp1875
(dp1876
g73
(dp1877
g81
I4
ssg82
g1871
sg75
(lp1878
S"<Values at 0x2611248: {'verbose': False, 'ip': '127.0.0.1', 'with_scheduler': False, 'ips': ['192.168.122.1'], 'shutdown_timeout': 5, 'taskbar': False, 'port': 8000, 'maxthreads': None, 'softcron': False, 'server_name': 'shipra', 'bpython': False, 'nogui': False, 'pid_filename': 'httpserver.pid', 'extcron': False, 'runcron': False, 'run_system_tests': False, 'test': None, 'folder': '/home/shipra/Desktop/Semester 1.2/ITWS-2/web2py', 'config': '', 'minthreads': None, 'winservice': '', 'shell': None, 'run': '', 'log_filename': 'httpserver.log', 'debuglevel': 30, 'args': [''], 'socket_timeout': 5, 'ssl_ca_certificate': None, 'scheduler': None, 'profiler_filename': None, 'ssl_private_key': '', 'scheduler_groups': None, 'password': '<ask>', 'request_queue_size': 5, 'ssl_certificate': '', 'cronjob': False, 'numthreads': None, 'quiet': False, 'interfaces': None, 'import_models': False, 'timeout': 10, 'plain': False, 'nobanner': False}>"
p1879
asbasbasbag68
(g84
g70
NtRp1880
(dp1881
g73
(dp1882
sg82
g1790
sg75
(lp1883
g68
(g89
g70
NtRp1884
(dp1885
g73
(dp1886
g93
g94
ssg82
g1880
sg75
(lp1887
g788
asbag68
(g89
g70
NtRp1888
(dp1889
g73
(dp1890
g100
g101
ssg82
g1880
sg75
(lp1891
S':'
asbag68
(g89
g70
NtRp1892
(dp1893
g73
(dp1894
sg82
g1880
sg75
(lp1895
g68
(g69
g70
NtRp1896
(dp1897
g73
(dp1898
g81
I4
ssg82
g1892
sg75
(lp1899
S'set([])'
p1900
asbasbasbag68
(g84
g70
NtRp1901
(dp1902
g73
(dp1903
sg82
g1790
sg75
(lp1904
g68
(g89
g70
NtRp1905
(dp1906
g73
(dp1907
g93
g94
ssg82
g1901
sg75
(lp1908
g810
asbag68
(g89
g70
NtRp1909
(dp1910
g73
(dp1911
g100
g101
ssg82
g1901
sg75
(lp1912
S':'
asbag68
(g89
g70
NtRp1913
(dp1914
g73
(dp1915
sg82
g1901
sg75
(lp1916
g68
(g69
g70
NtRp1917
(dp1918
g73
(dp1919
g81
I4
ssg82
g1913
sg75
(lp1920
g111
asbasbasbag68
(g84
g70
NtRp1921
(dp1922
g73
(dp1923
sg82
g1790
sg75
(lp1924
g68
(g89
g70
NtRp1925
(dp1926
g73
(dp1927
g93
g94
ssg82
g1921
sg75
(lp1928
g831
asbag68
(g89
g70
NtRp1929
(dp1930
g73
(dp1931
g100
g101
ssg82
g1921
sg75
(lp1932
S':'
asbag68
(g89
g70
NtRp1933
(dp1934
g73
(dp1935
sg82
g1921
sg75
(lp1936
g68
(g69
g70
NtRp1937
(dp1938
g73
(dp1939
g81
I4
ssg82
g1933
sg75
(lp1940
g844
asbasbasbag68
(g84
g70
NtRp1941
(dp1942
g73
(dp1943
sg82
g1790
sg75
(lp1944
g68
(g89
g70
NtRp1945
(dp1946
g73
(dp1947
g93
g94
ssg82
g1941
sg75
(lp1948
g1007
asbag68
(g89
g70
NtRp1949
(dp1950
g73
(dp1951
g100
g101
ssg82
g1941
sg75
(lp1952
S':'
asbag68
(g89
g70
NtRp1953
(dp1954
g73
(dp1955
sg82
g1941
sg75
(lp1956
g68
(g69
g70
NtRp1957
(dp1958
g73
(dp1959
g81
I4
ssg82
g1953
sg75
(lp1960
g111
asbasbasbag68
(g84
g70
NtRp1961
(dp1962
g73
(dp1963
sg82
g1790
sg75
(lp1964
g68
(g89
g70
NtRp1965
(dp1966
g73
(dp1967
g93
g94
ssg82
g1961
sg75
(lp1968
g1028
asbag68
(g89
g70
NtRp1969
(dp1970
g73
(dp1971
g100
g101
ssg82
g1961
sg75
(lp1972
S':'
asbag68
(g89
g70
NtRp1973
(dp1974
g73
(dp1975
sg82
g1961
sg75
(lp1976
g68
(g69
g70
NtRp1977
(dp1978
g73
(dp1979
g81
I4
ssg82
g1973
sg75
(lp1980
g111
asbasbasbag68
(g84
g70
NtRp1981
(dp1982
g73
(dp1983
sg82
g1790
sg75
(lp1984
g68
(g89
g70
NtRp1985
(dp1986
g73
(dp1987
g93
g94
ssg82
g1981
sg75
(lp1988
g1049
asbag68
(g89
g70
NtRp1989
(dp1990
g73
(dp1991
g100
g101
ssg82
g1981
sg75
(lp1992
S':'
asbag68
(g89
g70
NtRp1993
(dp1994
g73
(dp1995
sg82
g1981
sg75
(lp1996
g68
(g69
g70
NtRp1997
(dp1998
g73
(dp1999
g81
I4
ssg82
g1993
sg75
(lp2000
g68
(g77
g70
NtRp2001
(dp2002
g73
(dp2003
g81
I3
ssg82
Nsg75
(lp2004
g68
(g84
g70
NtRp2005
(dp2006
g73
(dp2007
sg82
g2001
sg75
(lp2008
g68
(g89
g70
NtRp2009
(dp2010
g73
(dp2011
sg82
g2005
sg75
(lp2012
g68
(g69
g70
NtRp2013
(dp2014
g73
(dp2015
g81
I3
ssg82
g2009
sg75
(lp2016
g1078
asbasbasbag68
(g84
g70
NtRp2017
(dp2018
g73
(dp2019
sg82
g2001
sg75
(lp2020
g68
(g89
g70
NtRp2021
(dp2022
g73
(dp2023
sg82
g2017
sg75
(lp2024
g68
(g69
g70
NtRp2025
(dp2026
g73
(dp2027
g81
I3
ssg82
g2021
sg75
(lp2028
g1091
asbasbasbag68
(g84
g70
NtRp2029
(dp2030
g73
(dp2031
sg82
g2001
sg75
(lp2032
g68
(g89
g70
NtRp2033
(dp2034
g73
(dp2035
sg82
g2029
sg75
(lp2036
g68
(g69
g70
NtRp2037
(dp2038
g73
(dp2039
g81
I3
ssg82
g2033
sg75
(lp2040
g1104
asbasbasbag68
(g84
g70
NtRp2041
(dp2042
g73
(dp2043
sg82
g2001
sg75
(lp2044
g68
(g89
g70
NtRp2045
(dp2046
g73
(dp2047
sg82
g2041
sg75
(lp2048
g68
(g69
g70
NtRp2049
(dp2050
g73
(dp2051
g81
I3
ssg82
g2045
sg75
(lp2052
g1117
asbasbasbag68
(g84
g70
NtRp2053
(dp2054
g73
(dp2055
sg82
g2001
sg75
(lp2056
g68
(g89
g70
NtRp2057
(dp2058
g73
(dp2059
sg82
g2053
sg75
(lp2060
g68
(g69
g70
NtRp2061
(dp2062
g73
(dp2063
g81
I3
ssg82
g2057
sg75
(lp2064
g1130
asbasbasbasbasbasbasbag68
(g84
g70
NtRp2065
(dp2066
g73
(dp2067
sg82
g1790
sg75
(lp2068
g68
(g89
g70
NtRp2069
(dp2070
g73
(dp2071
g93
g94
ssg82
g2065
sg75
(lp2072
g1398
asbag68
(g89
g70
NtRp2073
(dp2074
g73
(dp2075
g100
g101
ssg82
g2065
sg75
(lp2076
S':'
asbag68
(g89
g70
NtRp2077
(dp2078
g73
(dp2079
sg82
g2065
sg75
(lp2080
g68
(g69
g70
NtRp2081
(dp2082
g73
(dp2083
g81
I4
ssg82
g2077
sg75
(lp2084
g68
(g77
g70
NtRp2085
(dp2086
g73
(dp2087
g81
I3
ssg82
Nsg75
(lp2088
g68
(g84
g70
NtRp2089
(dp2090
g73
(dp2091
sg82
g2085
sg75
(lp2092
g68
(g89
g70
NtRp2093
(dp2094
g73
(dp2095
sg82
g2089
sg75
(lp2096
g68
(g69
g70
NtRp2097
(dp2098
g73
(dp2099
g81
I3
ssg82
g2093
sg75
(lp2100
S'2'
asbasbasbag68
(g84
g70
NtRp2101
(dp2102
g73
(dp2103
sg82
g2085
sg75
(lp2104
g68
(g89
g70
NtRp2105
(dp2106
g73
(dp2107
sg82
g2101
sg75
(lp2108
g68
(g69
g70
NtRp2109
(dp2110
g73
(dp2111
g81
I3
ssg82
g2105
sg75
(lp2112
S'3'
asbasbasbag68
(g84
g70
NtRp2113
(dp2114
g73
(dp2115
sg82
g2085
sg75
(lp2116
g68
(g89
g70
NtRp2117
(dp2118
g73
(dp2119
sg82
g2113
sg75
(lp2120
g68
(g69
g70
NtRp2121
(dp2122
g73
(dp2123
g81
I3
ssg82
g2117
sg75
(lp2124
S'2'
asbasbasbag68
(g84
g70
NtRp2125
(dp2126
g73
(dp2127
sg82
g2085
sg75
(lp2128
g68
(g89
g70
NtRp2129
(dp2130
g73
(dp2131
sg82
g2125
sg75
(lp2132
g68
(g69
g70
NtRp2133
(dp2134
g73
(dp2135
g81
I3
ssg82
g2129
sg75
(lp2136
S'datetime.datetime(2012, 12, 17, 15, 3, 30)'
p2137
asbasbasbag68
(g84
g70
NtRp2138
(dp2139
g73
(dp2140
sg82
g2085
sg75
(lp2141
g68
(g89
g70
NtRp2142
(dp2143
g73
(dp2144
sg82
g2138
sg75
(lp2145
g68
(g69
g70
NtRp2146
(dp2147
g73
(dp2148
g81
I3
ssg82
g2142
sg75
(lp2149
g1476
asbasbasbasbasbasbasbasbasbasbasbag68
(g84
g70
NtRp2150
(dp2151
g73
(dp2152
sg82
g78
sg75
(lp2153
g68
(g89
g70
NtRp2154
(dp2155
g73
(dp2156
g93
g94
ssg82
g2150
sg75
(lp2157
S'is_https'
p2158
asbag68
(g89
g70
NtRp2159
(dp2160
g73
(dp2161
g100
g101
ssg82
g2150
sg75
(lp2162
S':'
asbag68
(g89
g70
NtRp2163
(dp2164
g73
(dp2165
sg82
g2150
sg75
(lp2166
g68
(g69
g70
NtRp2167
(dp2168
g73
(dp2169
g81
I5
ssg82
g2163
sg75
(lp2170
g111
asbasbasbag68
(g84
g70
NtRp2171
(dp2172
g73
(dp2173
sg82
g78
sg75
(lp2174
g68
(g89
g70
NtRp2175
(dp2176
g73
(dp2177
g93
g94
ssg82
g2171
sg75
(lp2178
S'is_local'
p2179
asbag68
(g89
g70
NtRp2180
(dp2181
g73
(dp2182
g100
g101
ssg82
g2171
sg75
(lp2183
S':'
asbag68
(g89
g70
NtRp2184
(dp2185
g73
(dp2186
sg82
g2171
sg75
(lp2187
g68
(g69
g70
NtRp2188
(dp2189
g73
(dp2190
g81
I5
ssg82
g2184
sg75
(lp2191
g1585
asbasbasbag68
(g84
g70
NtRp2192
(dp2193
g73
(dp2194
sg82
g78
sg75
(lp2195
g68
(g89
g70
NtRp2196
(dp2197
g73
(dp2198
g93
g94
ssg82
g2192
sg75
(lp2199
S'is_restful'
p2200
asbag68
(g89
g70
NtRp2201
(dp2202
g73
(dp2203
g100
g101
ssg82
g2192
sg75
(lp2204
S':'
asbag68
(g89
g70
NtRp2205
(dp2206
g73
(dp2207
sg82
g2192
sg75
(lp2208
g68
(g69
g70
NtRp2209
(dp2210
g73
(dp2211
g81
I5
ssg82
g2205
sg75
(lp2212
g111
asbasbasbag68
(g84
g70
NtRp2213
(dp2214
g73
(dp2215
sg82
g78
sg75
(lp2216
g68
(g89
g70
NtRp2217
(dp2218
g73
(dp2219
g93
g94
ssg82
g2213
sg75
(lp2220
S'now'
p2221
asbag68
(g89
g70
NtRp2222
(dp2223
g73
(dp2224
g100
g101
ssg82
g2213
sg75
(lp2225
S':'
asbag68
(g89
g70
NtRp2226
(dp2227
g73
(dp2228
sg82
g2213
sg75
(lp2229
g68
(g69
g70
NtRp2230
(dp2231
g73
(dp2232
g81
I5
ssg82
g2226
sg75
(lp2233
S'datetime.datetime(2013, 4, 1, 23, 9, 11, 103643)'
p2234
asbasbasbag68
(g84
g70
NtRp2235
(dp2236
g73
(dp2237
sg82
g78
sg75
(lp2238
g68
(g89
g70
NtRp2239
(dp2240
g73
(dp2241
g93
g94
ssg82
g2235
sg75
(lp2242
S'post_vars'
p2243
asbag68
(g89
g70
NtRp2244
(dp2245
g73
(dp2246
g100
g101
ssg82
g2235
sg75
(lp2247
S':'
asbag68
(g89
g70
NtRp2248
(dp2249
g73
(dp2250
sg82
g2235
sg75
(lp2251
g68
(g69
g70
NtRp2252
(dp2253
g73
(dp2254
g81
I5
ssg82
g2248
sg75
(lp2255
g68
(g77
g70
NtRp2256
(dp2257
g73
(dp2258
g81
I4
ssg82
Nsg75
(lp2259
sbasbasbasbag68
(g84
g70
NtRp2260
(dp2261
g73
(dp2262
sg82
g78
sg75
(lp2263
g68
(g89
g70
NtRp2264
(dp2265
g73
(dp2266
g93
g94
ssg82
g2260
sg75
(lp2267
S'raw_args'
p2268
asbag68
(g89
g70
NtRp2269
(dp2270
g73
(dp2271
g100
g101
ssg82
g2260
sg75
(lp2272
S':'
asbag68
(g89
g70
NtRp2273
(dp2274
g73
(dp2275
sg82
g2260
sg75
(lp2276
g68
(g69
g70
NtRp2277
(dp2278
g73
(dp2279
g81
I5
ssg82
g2273
sg75
(lp2280
g170
asbasbasbag68
(g84
g70
NtRp2281
(dp2282
g73
(dp2283
sg82
g78
sg75
(lp2284
g68
(g89
g70
NtRp2285
(dp2286
g73
(dp2287
g93
g94
ssg82
g2281
sg75
(lp2288
S'raw_extension'
p2289
asbag68
(g89
g70
NtRp2290
(dp2291
g73
(dp2292
g100
g101
ssg82
g2281
sg75
(lp2293
S':'
asbag68
(g89
g70
NtRp2294
(dp2295
g73
(dp2296
sg82
g2281
sg75
(lp2297
g68
(g69
g70
NtRp2298
(dp2299
g73
(dp2300
g81
I5
ssg82
g2294
sg75
(lp2301
S'None'
p2302
asbasbasbag68
(g84
g70
NtRp2303
(dp2304
g73
(dp2305
sg82
g78
sg75
(lp2306
g68
(g89
g70
NtRp2307
(dp2308
g73
(dp2309
g93
g94
ssg82
g2303
sg75
(lp2310
S'url'
p2311
asbag68
(g89
g70
NtRp2312
(dp2313
g73
(dp2314
g100
g101
ssg82
g2303
sg75
(lp2315
S':'
asbag68
(g89
g70
NtRp2316
(dp2317
g73
(dp2318
sg82
g2303
sg75
(lp2319
g68
(g69
g70
NtRp2320
(dp2321
g73
(dp2322
g81
I5
ssg82
g2316
sg75
(lp2323
g1152
asbasbasbag68
(g84
g70
NtRp2324
(dp2325
g73
(dp2326
sg82
g78
sg75
(lp2327
g68
(g89
g70
NtRp2328
(dp2329
g73
(dp2330
g93
g94
ssg82
g2324
sg75
(lp2331
S'utcnow'
p2332
asbag68
(g89
g70
NtRp2333
(dp2334
g73
(dp2335
g100
g101
ssg82
g2324
sg75
(lp2336
S':'
asbag68
(g89
g70
NtRp2337
(dp2338
g73
(dp2339
sg82
g2324
sg75
(lp2340
g68
(g69
g70
NtRp2341
(dp2342
g73
(dp2343
g81
I5
ssg82
g2337
sg75
(lp2344
S'datetime.datetime(2013, 4, 1, 17, 39, 11, 103669)'
p2345
asbasbasbag68
(g84
g70
NtRp2346
(dp2347
g73
(dp2348
sg82
g78
sg75
(lp2349
g68
(g89
g70
NtRp2350
(dp2351
g73
(dp2352
g93
g94
ssg82
g2346
sg75
(lp2353
S'uuid'
p2354
asbag68
(g89
g70
NtRp2355
(dp2356
g73
(dp2357
g100
g101
ssg82
g2346
sg75
(lp2358
S':'
asbag68
(g89
g70
NtRp2359
(dp2360
g73
(dp2361
sg82
g2346
sg75
(lp2362
g68
(g69
g70
NtRp2363
(dp2364
g73
(dp2365
g81
I5
ssg82
g2359
sg75
(lp2366
S'shipra/127.0.0.1.2013-04-01.23-09-11.436766b2-6e50-4c5f-96ae-7ca757b94287'
p2367
asbasbasbag68
(g84
g70
NtRp2368
(dp2369
g73
(dp2370
sg82
g78
sg75
(lp2371
g68
(g89
g70
NtRp2372
(dp2373
g73
(dp2374
g93
g94
ssg82
g2368
sg75
(lp2375
S'vars'
p2376
asbag68
(g89
g70
NtRp2377
(dp2378
g73
(dp2379
g100
g101
ssg82
g2368
sg75
(lp2380
S':'
asbag68
(g89
g70
NtRp2381
(dp2382
g73
(dp2383
sg82
g2368
sg75
(lp2384
g68
(g69
g70
NtRp2385
(dp2386
g73
(dp2387
g81
I5
ssg82
g2381
sg75
(lp2388
g68
(g77
g70
NtRp2389
(dp2390
g73
(dp2391
g81
I4
ssg82
Nsg75
(lp2392
sbasbasbasbag68
(g84
g70
NtRp2393
(dp2394
g73
(dp2395
sg82
g78
sg75
(lp2396
g68
(g89
g70
NtRp2397
(dp2398
g73
(dp2399
g93
g94
ssg82
g2393
sg75
(lp2400
S'wsgi'
p2401
asbag68
(g89
g70
NtRp2402
(dp2403
g73
(dp2404
g100
g101
ssg82
g2393
sg75
(lp2405
S':'
asbag68
(g89
g70
NtRp2406
(dp2407
g73
(dp2408
sg82
g2393
sg75
(lp2409
g68
(g69
g70
NtRp2410
(dp2411
g73
(dp2412
g81
I5
ssg82
g2406
sg75
(lp2413
g68
(g77
g70
NtRp2414
(dp2415
g73
(dp2416
g81
I4
ssg82
Nsg75
(lp2417
g68
(g84
g70
NtRp2418
(dp2419
g73
(dp2420
sg82
g2414
sg75
(lp2421
g68
(g89
g70
NtRp2422
(dp2423
g73
(dp2424
g93
g94
ssg82
g2418
sg75
(lp2425
S'environ'
p2426
asbag68
(g89
g70
NtRp2427
(dp2428
g73
(dp2429
g100
g101
ssg82
g2418
sg75
(lp2430
S':'
asbag68
(g89
g70
NtRp2431
(dp2432
g73
(dp2433
sg82
g2418
sg75
(lp2434
g68
(g69
g70
NtRp2435
(dp2436
g73
(dp2437
g81
I4
ssg82
g2431
sg75
(lp2438
g68
(g77
g70
NtRp2439
(dp2440
g73
(dp2441
g81
I3
ssg82
Nsg75
(lp2442
g68
(g84
g70
NtRp2443
(dp2444
g73
(dp2445
sg82
g2439
sg75
(lp2446
g68
(g89
g70
NtRp2447
(dp2448
g73
(dp2449
g93
g94
ssg82
g2443
sg75
(lp2450
S'HTTP_ACCEPT'
p2451
asbag68
(g89
g70
NtRp2452
(dp2453
g73
(dp2454
g100
g101
ssg82
g2443
sg75
(lp2455
S':'
asbag68
(g89
g70
NtRp2456
(dp2457
g73
(dp2458
sg82
g2443
sg75
(lp2459
g68
(g69
g70
NtRp2460
(dp2461
g73
(dp2462
g81
I3
ssg82
g2456
sg75
(lp2463
g866
asbasbasbag68
(g84
g70
NtRp2464
(dp2465
g73
(dp2466
sg82
g2439
sg75
(lp2467
g68
(g89
g70
NtRp2468
(dp2469
g73
(dp2470
g93
g94
ssg82
g2464
sg75
(lp2471
S'HTTP_ACCEPT_ENCODING'
p2472
asbag68
(g89
g70
NtRp2473
(dp2474
g73
(dp2475
g100
g101
ssg82
g2464
sg75
(lp2476
S':'
asbag68
(g89
g70
NtRp2477
(dp2478
g73
(dp2479
sg82
g2464
sg75
(lp2480
g68
(g69
g70
NtRp2481
(dp2482
g73
(dp2483
g81
I3
ssg82
g2477
sg75
(lp2484
g888
asbasbasbag68
(g84
g70
NtRp2485
(dp2486
g73
(dp2487
sg82
g2439
sg75
(lp2488
g68
(g89
g70
NtRp2489
(dp2490
g73
(dp2491
g93
g94
ssg82
g2485
sg75
(lp2492
S'HTTP_ACCEPT_LANGUAGE'
p2493
asbag68
(g89
g70
NtRp2494
(dp2495
g73
(dp2496
g100
g101
ssg82
g2485
sg75
(lp2497
S':'
asbag68
(g89
g70
NtRp2498
(dp2499
g73
(dp2500
sg82
g2485
sg75
(lp2501
g68
(g69
g70
NtRp2502
(dp2503
g73
(dp2504
g81
I3
ssg82
g2498
sg75
(lp2505
g910
asbasbasbag68
(g84
g70
NtRp2506
(dp2507
g73
(dp2508
sg82
g2439
sg75
(lp2509
g68
(g89
g70
NtRp2510
(dp2511
g73
(dp2512
g93
g94
ssg82
g2506
sg75
(lp2513
S'HTTP_CONNECTION'
p2514
asbag68
(g89
g70
NtRp2515
(dp2516
g73
(dp2517
g100
g101
ssg82
g2506
sg75
(lp2518
S':'
asbag68
(g89
g70
NtRp2519
(dp2520
g73
(dp2521
sg82
g2506
sg75
(lp2522
g68
(g69
g70
NtRp2523
(dp2524
g73
(dp2525
g81
I3
ssg82
g2519
sg75
(lp2526
g932
asbasbasbag68
(g84
g70
NtRp2527
(dp2528
g73
(dp2529
sg82
g2439
sg75
(lp2530
g68
(g89
g70
NtRp2531
(dp2532
g73
(dp2533
g93
g94
ssg82
g2527
sg75
(lp2534
S'HTTP_COOKIE'
p2535
asbag68
(g89
g70
NtRp2536
(dp2537
g73
(dp2538
g100
g101
ssg82
g2527
sg75
(lp2539
S':'
asbag68
(g89
g70
NtRp2540
(dp2541
g73
(dp2542
sg82
g2527
sg75
(lp2543
g68
(g69
g70
NtRp2544
(dp2545
g73
(dp2546
g81
I3
ssg82
g2540
sg75
(lp2547
g954
asbasbasbag68
(g84
g70
NtRp2548
(dp2549
g73
(dp2550
sg82
g2439
sg75
(lp2551
g68
(g89
g70
NtRp2552
(dp2553
g73
(dp2554
g93
g94
ssg82
g2548
sg75
(lp2555
S'HTTP_HOST'
p2556
asbag68
(g89
g70
NtRp2557
(dp2558
g73
(dp2559
g100
g101
ssg82
g2548
sg75
(lp2560
S':'
asbag68
(g89
g70
NtRp2561
(dp2562
g73
(dp2563
sg82
g2548
sg75
(lp2564
g68
(g69
g70
NtRp2565
(dp2566
g73
(dp2567
g81
I3
ssg82
g2561
sg75
(lp2568
g976
asbasbasbag68
(g84
g70
NtRp2569
(dp2570
g73
(dp2571
sg82
g2439
sg75
(lp2572
g68
(g89
g70
NtRp2573
(dp2574
g73
(dp2575
g93
g94
ssg82
g2569
sg75
(lp2576
S'HTTP_USER_AGENT'
p2577
asbag68
(g89
g70
NtRp2578
(dp2579
g73
(dp2580
g100
g101
ssg82
g2569
sg75
(lp2581
S':'
asbag68
(g89
g70
NtRp2582
(dp2583
g73
(dp2584
sg82
g2569
sg75
(lp2585
g68
(g69
g70
NtRp2586
(dp2587
g73
(dp2588
g81
I3
ssg82
g2582
sg75
(lp2589
g998
asbasbasbag68
(g84
g70
NtRp2590
(dp2591
g73
(dp2592
sg82
g2439
sg75
(lp2593
g68
(g89
g70
NtRp2594
(dp2595
g73
(dp2596
g93
g94
ssg82
g2590
sg75
(lp2597
S'PATH_INFO'
p2598
asbag68
(g89
g70
NtRp2599
(dp2600
g73
(dp2601
g100
g101
ssg82
g2590
sg75
(lp2602
S':'
asbag68
(g89
g70
NtRp2603
(dp2604
g73
(dp2605
sg82
g2590
sg75
(lp2606
g68
(g69
g70
NtRp2607
(dp2608
g73
(dp2609
g81
I3
ssg82
g2603
sg75
(lp2610
g1152
asbasbasbag68
(g84
g70
NtRp2611
(dp2612
g73
(dp2613
sg82
g2439
sg75
(lp2614
g68
(g89
g70
NtRp2615
(dp2616
g73
(dp2617
g93
g94
ssg82
g2611
sg75
(lp2618
S'QUERY_STRING'
p2619
asbag68
(g89
g70
NtRp2620
(dp2621
g73
(dp2622
g100
g101
ssg82
g2611
sg75
(lp2623
S':'
asbag68
(g89
g70
NtRp2624
(dp2625
g73
(dp2626
sg82
g2611
sg75
(lp2627
g68
(g69
g70
NtRp2628
(dp2629
g73
(dp2630
g81
I3
ssg82
g2624
sg75
(lp2631
S''
asbasbasbag68
(g84
g70
NtRp2632
(dp2633
g73
(dp2634
sg82
g2439
sg75
(lp2635
g68
(g89
g70
NtRp2636
(dp2637
g73
(dp2638
g93
g94
ssg82
g2632
sg75
(lp2639
S'REMOTE_ADDR'
p2640
asbag68
(g89
g70
NtRp2641
(dp2642
g73
(dp2643
g100
g101
ssg82
g2632
sg75
(lp2644
S':'
asbag68
(g89
g70
NtRp2645
(dp2646
g73
(dp2647
sg82
g2632
sg75
(lp2648
g68
(g69
g70
NtRp2649
(dp2650
g73
(dp2651
g81
I3
ssg82
g2645
sg75
(lp2652
g236
asbasbasbag68
(g84
g70
NtRp2653
(dp2654
g73
(dp2655
sg82
g2439
sg75
(lp2656
g68
(g89
g70
NtRp2657
(dp2658
g73
(dp2659
g93
g94
ssg82
g2653
sg75
(lp2660
S'REMOTE_PORT'
p2661
asbag68
(g89
g70
NtRp2662
(dp2663
g73
(dp2664
g100
g101
ssg82
g2653
sg75
(lp2665
S':'
asbag68
(g89
g70
NtRp2666
(dp2667
g73
(dp2668
sg82
g2653
sg75
(lp2669
g68
(g69
g70
NtRp2670
(dp2671
g73
(dp2672
g81
I3
ssg82
g2666
sg75
(lp2673
g1216
asbasbasbag68
(g84
g70
NtRp2674
(dp2675
g73
(dp2676
sg82
g2439
sg75
(lp2677
g68
(g89
g70
NtRp2678
(dp2679
g73
(dp2680
g93
g94
ssg82
g2674
sg75
(lp2681
S'REQUEST_METHOD'
p2682
asbag68
(g89
g70
NtRp2683
(dp2684
g73
(dp2685
g100
g101
ssg82
g2674
sg75
(lp2686
S':'
asbag68
(g89
g70
NtRp2687
(dp2688
g73
(dp2689
sg82
g2674
sg75
(lp2690
g68
(g69
g70
NtRp2691
(dp2692
g73
(dp2693
g81
I3
ssg82
g2687
sg75
(lp2694
g1238
asbasbasbag68
(g84
g70
NtRp2695
(dp2696
g73
(dp2697
sg82
g2439
sg75
(lp2698
g68
(g89
g70
NtRp2699
(dp2700
g73
(dp2701
g93
g94
ssg82
g2695
sg75
(lp2702
S'REQUEST_URI'
p2703
asbag68
(g89
g70
NtRp2704
(dp2705
g73
(dp2706
g100
g101
ssg82
g2695
sg75
(lp2707
S':'
asbag68
(g89
g70
NtRp2708
(dp2709
g73
(dp2710
sg82
g2695
sg75
(lp2711
g68
(g69
g70
NtRp2712
(dp2713
g73
(dp2714
g81
I3
ssg82
g2708
sg75
(lp2715
g1152
asbasbasbag68
(g84
g70
NtRp2716
(dp2717
g73
(dp2718
sg82
g2439
sg75
(lp2719
g68
(g89
g70
NtRp2720
(dp2721
g73
(dp2722
g93
g94
ssg82
g2716
sg75
(lp2723
S'SCRIPT_NAME'
p2724
asbag68
(g89
g70
NtRp2725
(dp2726
g73
(dp2727
g100
g101
ssg82
g2716
sg75
(lp2728
S':'
asbag68
(g89
g70
NtRp2729
(dp2730
g73
(dp2731
sg82
g2716
sg75
(lp2732
g68
(g69
g70
NtRp2733
(dp2734
g73
(dp2735
g81
I3
ssg82
g2729
sg75
(lp2736
S''
asbasbasbag68
(g84
g70
NtRp2737
(dp2738
g73
(dp2739
sg82
g2439
sg75
(lp2740
g68
(g89
g70
NtRp2741
(dp2742
g73
(dp2743
g93
g94
ssg82
g2737
sg75
(lp2744
S'SERVER_NAME'
p2745
asbag68
(g89
g70
NtRp2746
(dp2747
g73
(dp2748
g100
g101
ssg82
g2737
sg75
(lp2749
S':'
asbag68
(g89
g70
NtRp2750
(dp2751
g73
(dp2752
sg82
g2737
sg75
(lp2753
g68
(g69
g70
NtRp2754
(dp2755
g73
(dp2756
g81
I3
ssg82
g2750
sg75
(lp2757
g1302
asbasbasbag68
(g84
g70
NtRp2758
(dp2759
g73
(dp2760
sg82
g2439
sg75
(lp2761
g68
(g89
g70
NtRp2762
(dp2763
g73
(dp2764
g93
g94
ssg82
g2758
sg75
(lp2765
S'SERVER_PORT'
p2766
asbag68
(g89
g70
NtRp2767
(dp2768
g73
(dp2769
g100
g101
ssg82
g2758
sg75
(lp2770
S':'
asbag68
(g89
g70
NtRp2771
(dp2772
g73
(dp2773
sg82
g2758
sg75
(lp2774
g68
(g69
g70
NtRp2775
(dp2776
g73
(dp2777
g81
I3
ssg82
g2771
sg75
(lp2778
g1324
asbasbasbag68
(g84
g70
NtRp2779
(dp2780
g73
(dp2781
sg82
g2439
sg75
(lp2782
g68
(g89
g70
NtRp2783
(dp2784
g73
(dp2785
g93
g94
ssg82
g2779
sg75
(lp2786
S'SERVER_PROTOCOL'
p2787
asbag68
(g89
g70
NtRp2788
(dp2789
g73
(dp2790
g100
g101
ssg82
g2779
sg75
(lp2791
S':'
asbag68
(g89
g70
NtRp2792
(dp2793
g73
(dp2794
sg82
g2779
sg75
(lp2795
g68
(g69
g70
NtRp2796
(dp2797
g73
(dp2798
g81
I3
ssg82
g2792
sg75
(lp2799
g1346
asbasbasbag68
(g84
g70
NtRp2800
(dp2801
g73
(dp2802
sg82
g2439
sg75
(lp2803
g68
(g89
g70
NtRp2804
(dp2805
g73
(dp2806
g93
g94
ssg82
g2800
sg75
(lp2807
S'SERVER_SOFTWARE'
p2808
asbag68
(g89
g70
NtRp2809
(dp2810
g73
(dp2811
g100
g101
ssg82
g2800
sg75
(lp2812
S':'
asbag68
(g89
g70
NtRp2813
(dp2814
g73
(dp2815
sg82
g2800
sg75
(lp2816
g68
(g69
g70
NtRp2817
(dp2818
g73
(dp2819
g81
I3
ssg82
g2813
sg75
(lp2820
g1368
asbasbasbag68
(g84
g70
NtRp2821
(dp2822
g73
(dp2823
sg82
g2439
sg75
(lp2824
g68
(g89
g70
NtRp2825
(dp2826
g73
(dp2827
g93
g94
ssg82
g2821
sg75
(lp2828
S'wsgi.errors'
p2829
asbag68
(g89
g70
NtRp2830
(dp2831
g73
(dp2832
g100
g101
ssg82
g2821
sg75
(lp2833
S':'
asbag68
(g89
g70
NtRp2834
(dp2835
g73
(dp2836
sg82
g2821
sg75
(lp2837
g68
(g69
g70
NtRp2838
(dp2839
g73
(dp2840
g81
I3
ssg82
g2834
sg75
(lp2841
S"<open file '<stderr>', mode 'w' at 0x7f813e4ad270>"
p2842
asbasbasbag68
(g84
g70
NtRp2843
(dp2844
g73
(dp2845
sg82
g2439
sg75
(lp2846
g68
(g89
g70
NtRp2847
(dp2848
g73
(dp2849
g93
g94
ssg82
g2843
sg75
(lp2850
S'wsgi.file_wrapper'
p2851
asbag68
(g89
g70
NtRp2852
(dp2853
g73
(dp2854
g100
g101
ssg82
g2843
sg75
(lp2855
S':'
asbag68
(g89
g70
NtRp2856
(dp2857
g73
(dp2858
sg82
g2843
sg75
(lp2859
g68
(g69
g70
NtRp2860
(dp2861
g73
(dp2862
g81
I3
ssg82
g2856
sg75
(lp2863
S'<class wsgiref.util.FileWrapper at 0x259adb8>'
p2864
asbasbasbag68
(g84
g70
NtRp2865
(dp2866
g73
(dp2867
sg82
g2439
sg75
(lp2868
g68
(g89
g70
NtRp2869
(dp2870
g73
(dp2871
g93
g94
ssg82
g2865
sg75
(lp2872
S'wsgi.input'
p2873
asbag68
(g89
g70
NtRp2874
(dp2875
g73
(dp2876
g100
g101
ssg82
g2865
sg75
(lp2877
S':'
asbag68
(g89
g70
NtRp2878
(dp2879
g73
(dp2880
sg82
g2865
sg75
(lp2881
g68
(g69
g70
NtRp2882
(dp2883
g73
(dp2884
g81
I3
ssg82
g2878
sg75
(lp2885
S'<cStringIO.StringO object at 0x7f812828b8f0>'
p2886
asbasbasbag68
(g84
g70
NtRp2887
(dp2888
g73
(dp2889
sg82
g2439
sg75
(lp2890
g68
(g89
g70
NtRp2891
(dp2892
g73
(dp2893
g93
g94
ssg82
g2887
sg75
(lp2894
S'wsgi.multiprocess'
p2895
asbag68
(g89
g70
NtRp2896
(dp2897
g73
(dp2898
g100
g101
ssg82
g2887
sg75
(lp2899
S':'
asbag68
(g89
g70
NtRp2900
(dp2901
g73
(dp2902
sg82
g2887
sg75
(lp2903
g68
(g69
g70
NtRp2904
(dp2905
g73
(dp2906
g81
I3
ssg82
g2900
sg75
(lp2907
g111
asbasbasbag68
(g84
g70
NtRp2908
(dp2909
g73
(dp2910
sg82
g2439
sg75
(lp2911
g68
(g89
g70
NtRp2912
(dp2913
g73
(dp2914
g93
g94
ssg82
g2908
sg75
(lp2915
S'wsgi.multithread'
p2916
asbag68
(g89
g70
NtRp2917
(dp2918
g73
(dp2919
g100
g101
ssg82
g2908
sg75
(lp2920
S':'
asbag68
(g89
g70
NtRp2921
(dp2922
g73
(dp2923
sg82
g2908
sg75
(lp2924
g68
(g69
g70
NtRp2925
(dp2926
g73
(dp2927
g81
I3
ssg82
g2921
sg75
(lp2928
g1585
asbasbasbag68
(g84
g70
NtRp2929
(dp2930
g73
(dp2931
sg82
g2439
sg75
(lp2932
g68
(g89
g70
NtRp2933
(dp2934
g73
(dp2935
g93
g94
ssg82
g2929
sg75
(lp2936
S'wsgi.run_once'
p2937
asbag68
(g89
g70
NtRp2938
(dp2939
g73
(dp2940
g100
g101
ssg82
g2929
sg75
(lp2941
S':'
asbag68
(g89
g70
NtRp2942
(dp2943
g73
(dp2944
sg82
g2929
sg75
(lp2945
g68
(g69
g70
NtRp2946
(dp2947
g73
(dp2948
g81
I3
ssg82
g2942
sg75
(lp2949
g111
asbasbasbag68
(g84
g70
NtRp2950
(dp2951
g73
(dp2952
sg82
g2439
sg75
(lp2953
g68
(g89
g70
NtRp2954
(dp2955
g73
(dp2956
g93
g94
ssg82
g2950
sg75
(lp2957
S'wsgi.url_scheme'
p2958
asbag68
(g89
g70
NtRp2959
(dp2960
g73
(dp2961
g100
g101
ssg82
g2950
sg75
(lp2962
S':'
asbag68
(g89
g70
NtRp2963
(dp2964
g73
(dp2965
sg82
g2950
sg75
(lp2966
g68
(g69
g70
NtRp2967
(dp2968
g73
(dp2969
g81
I3
ssg82
g2963
sg75
(lp2970
g1628
asbasbasbag68
(g84
g70
NtRp2971
(dp2972
g73
(dp2973
sg82
g2439
sg75
(lp2974
g68
(g89
g70
NtRp2975
(dp2976
g73
(dp2977
g93
g94
ssg82
g2971
sg75
(lp2978
S'wsgi.version'
p2979
asbag68
(g89
g70
NtRp2980
(dp2981
g73
(dp2982
g100
g101
ssg82
g2971
sg75
(lp2983
S':'
asbag68
(g89
g70
NtRp2984
(dp2985
g73
(dp2986
sg82
g2971
sg75
(lp2987
g68
(g69
g70
NtRp2988
(dp2989
g73
(dp2990
g81
I3
ssg82
g2984
sg75
(lp2991
S'1'
asbasbasbasbasbasbasbasbasbasbasbasbasbsS'frames'
p2992
(lp2993
(dp2994
S'file'
p2995
S'/home/shipra/Desktop/Semester 1.2/ITWS-2/web2py/gluon/restricted.py'
p2996
sS'dump'
p2997
(dp2998
S'code'
p2999
S"'# -*- coding: utf-8 -*-\\n# this file is released ...m=crud())\\n\\nresponse._vars=response._caller(user)\\n'"
p3000
sS'layer'
p3001
S"'/home/shipra/Desktop/Semester 1.2/ITWS-2/web2py/applications/shipra/controllers/default.py'"
p3002
sS'global compile2'
p3003
S'<function compile2>'
p3004
sS'ccode'
p3005
S'undefined'
p3006
ssS'lnum'
p3007
I211
sS'lines'
p3008
(dp3009
I206
S"    environment['__name__'] = '__restricted__'"
p3010
sI207
S'    try:'
p3011
sI208
S'        if isinstance(code, types.CodeType):'
p3012
sI209
S'            ccode = code'
p3013
sI210
S'        else:'
p3014
sI211
S'            ccode = compile2(code, layer)'
p3015
sI212
S'        exec ccode in environment'
p3016
sI213
S'    except HTTP:'
p3017
sI214
S'        raise'
p3018
sI215
S'    except RestrictedError:'
p3019
ssS'call'
p3020
S"(code='# -*- coding: utf-8 -*-\\n# this file is released ...m=crud())\\n\\nresponse._vars=response._caller(user)\\n', environment={'A': <class 'gluon.html.A'>, 'Auth': <class 'gluon.tools.Auth'>, 'B': <class 'gluon.html.B'>, 'BEAUTIFY': <class 'gluon.html.BEAUTIFY'>, 'BODY': <class 'gluon.html.BODY'>, 'BR': <class 'gluon.html.BR'>, 'BUTTON': <class 'gluon.html.BUTTON'>, 'CAT': <class 'gluon.html.CAT'>, 'CENTER': <class 'gluon.html.CENTER'>, 'CLEANUP': <class 'gluon.validators.CLEANUP'>, ...}, layer='/home/shipra/Desktop/Semester 1.2/ITWS-2/web2py/applications/shipra/controllers/default.py')"
p3021
sS'func'
p3022
S'restricted'
p3023
sa(dp3024
g2995
S'/home/shipra/Desktop/Semester 1.2/ITWS-2/web2py/gluon/restricted.py'
p3025
sg2997
(dp3026
S'builtincompile'
p3027
S'<built-in function compile>'
p3028
sS'code'
p3029
S"'# -*- coding: utf-8 -*-\\n# this file is released ...m=crud())\\n\\nresponse._vars=response._caller(user)\\n'"
p3030
sS'code.rstrip'
p3031
S'<built-in method rstrip of str object>'
p3032
sS').replace'
p3033
g3006
sS'layer'
p3034
S"'/home/shipra/Desktop/Semester 1.2/ITWS-2/web2py/applications/shipra/controllers/default.py'"
p3035
ssg3007
I194
sg3008
(dp3036
I192
S"    The +'\\n' is necessary else compile fails when code ends in a comment."
p3037
sI193
S'    """'
p3038
sI194
S"    return compile(code.rstrip().replace('\\r\\n', '\\n') + '\\n', layer, 'exec')"
p3039
sI195
S''
sI196
S''
sI197
S"def restricted(code, environment=None, layer='Unknown'):"
p3040
sI198
S'    """'
p3041
sI189
S''
sI190
S'def compile2(code, layer):'
p3042
sI191
S'    """'
p3043
ssg3020
S"(code='# -*- coding: utf-8 -*-\\n# this file is released ...m=crud())\\n\\nresponse._vars=response._caller(user)\\n', layer='/home/shipra/Desktop/Semester 1.2/ITWS-2/web2py/applications/shipra/controllers/default.py')"
p3044
sg3022
S'compile2'
p3045
sasS'pyver'
p3046
S'Python 2.7.3: /usr/bin/python'
p3047
sS'session'
p3048
g68
(g69
g70
NtRp3049
(dp3050
g73
(dp3051
sg75
(lp3052
g68
(g77
g70
NtRp3053
(dp3054
g73
(dp3055
g81
I5
ssg82
Nsg75
(lp3056
sbasbsS'etype'
p3057
S"<type 'exceptions.SyntaxError'>"
p3058
sS'date'
p3059
S'Mon Apr  1 23:09:11 2013'
p3060
sS'response'
p3061
g68
(g69
g70
NtRp3062
(dp3063
g73
(dp3064
sg75
(lp3065
g68
(g77
g70
NtRp3066
(dp3067
g73
(dp3068
g81
I5
ssg82
Nsg75
(lp3069
g68
(g84
g70
NtRp3070
(dp3071
g73
(dp3072
sg82
g3066
sg75
(lp3073
g68
(g89
g70
NtRp3074
(dp3075
g73
(dp3076
g93
g94
ssg82
g3070
sg75
(lp3077
g179
asbag68
(g89
g70
NtRp3078
(dp3079
g73
(dp3080
g100
g101
ssg82
g3070
sg75
(lp3081
S':'
asbag68
(g89
g70
NtRp3082
(dp3083
g73
(dp3084
sg82
g3070
sg75
(lp3085
g68
(g69
g70
NtRp3086
(dp3087
g73
(dp3088
g81
I5
ssg82
g3082
sg75
(lp3089
S'<cStringIO.StringO object at 0x7f812828b5e0>'
p3090
asbasbasbag68
(g84
g70
NtRp3091
(dp3092
g73
(dp3093
sg82
g3066
sg75
(lp3094
g68
(g89
g70
NtRp3095
(dp3096
g73
(dp3097
g93
g94
ssg82
g3091
sg75
(lp3098
g267
asbag68
(g89
g70
NtRp3099
(dp3100
g73
(dp3101
g100
g101
ssg82
g3091
sg75
(lp3102
S':'
asbag68
(g89
g70
NtRp3103
(dp3104
g73
(dp3105
sg82
g3091
sg75
(lp3106
g68
(g69
g70
NtRp3107
(dp3108
g73
(dp3109
g81
I5
ssg82
g3103
sg75
(lp3110
g68
(g77
g70
NtRp3111
(dp3112
g73
(dp3113
g81
I4
ssg82
Nsg75
(lp3114
g68
(g84
g70
NtRp3115
(dp3116
g73
(dp3117
sg82
g3111
sg75
(lp3118
g68
(g89
g70
NtRp3119
(dp3120
g73
(dp3121
g93
g94
ssg82
g3115
sg75
(lp3122
S'session_id_shipra'
p3123
asbag68
(g89
g70
NtRp3124
(dp3125
g73
(dp3126
g100
g101
ssg82
g3115
sg75
(lp3127
S':'
asbag68
(g89
g70
NtRp3128
(dp3129
g73
(dp3130
sg82
g3115
sg75
(lp3131
g68
(g69
g70
NtRp3132
(dp3133
g73
(dp3134
g81
I4
ssg82
g3128
sg75
(lp3135
S'127.0.0.1-d4f69205-a302-4a76-8b1d-9b7028341411'
p3136
ag68
(g77
g70
NtRp3137
(dp3138
g73
(dp3139
g81
I3
ssg82
Nsg75
(lp3140
g68
(g84
g70
NtRp3141
(dp3142
g73
(dp3143
sg82
g3137
sg75
(lp3144
g68
(g89
g70
NtRp3145
(dp3146
g73
(dp3147
g93
g94
ssg82
g3141
sg75
(lp3148
g318
asbag68
(g89
g70
NtRp3149
(dp3150
g73
(dp3151
g100
g101
ssg82
g3141
sg75
(lp3152
S':'
asbag68
(g89
g70
NtRp3153
(dp3154
g73
(dp3155
sg82
g3141
sg75
(lp3156
g68
(g69
g70
NtRp3157
(dp3158
g73
(dp3159
g81
I3
ssg82
g3153
sg75
(lp3160
S''
asbasbasbag68
(g84
g70
NtRp3161
(dp3162
g73
(dp3163
sg82
g3137
sg75
(lp3164
g68
(g89
g70
NtRp3165
(dp3166
g73
(dp3167
g93
g94
ssg82
g3161
sg75
(lp3168
g339
asbag68
(g89
g70
NtRp3169
(dp3170
g73
(dp3171
g100
g101
ssg82
g3161
sg75
(lp3172
S':'
asbag68
(g89
g70
NtRp3173
(dp3174
g73
(dp3175
sg82
g3161
sg75
(lp3176
g68
(g69
g70
NtRp3177
(dp3178
g73
(dp3179
g81
I3
ssg82
g3173
sg75
(lp3180
S''
asbasbasbag68
(g84
g70
NtRp3181
(dp3182
g73
(dp3183
sg82
g3137
sg75
(lp3184
g68
(g89
g70
NtRp3185
(dp3186
g73
(dp3187
g93
g94
ssg82
g3181
sg75
(lp3188
g360
asbag68
(g89
g70
NtRp3189
(dp3190
g73
(dp3191
g100
g101
ssg82
g3181
sg75
(lp3192
S':'
asbag68
(g89
g70
NtRp3193
(dp3194
g73
(dp3195
sg82
g3181
sg75
(lp3196
g68
(g69
g70
NtRp3197
(dp3198
g73
(dp3199
g81
I3
ssg82
g3193
sg75
(lp3200
S''
asbasbasbag68
(g84
g70
NtRp3201
(dp3202
g73
(dp3203
sg82
g3137
sg75
(lp3204
g68
(g89
g70
NtRp3205
(dp3206
g73
(dp3207
g93
g94
ssg82
g3201
sg75
(lp3208
g381
asbag68
(g89
g70
NtRp3209
(dp3210
g73
(dp3211
g100
g101
ssg82
g3201
sg75
(lp3212
S':'
asbag68
(g89
g70
NtRp3213
(dp3214
g73
(dp3215
sg82
g3201
sg75
(lp3216
g68
(g69
g70
NtRp3217
(dp3218
g73
(dp3219
g81
I3
ssg82
g3213
sg75
(lp3220
S''
asbasbasbag68
(g84
g70
NtRp3221
(dp3222
g73
(dp3223
sg82
g3137
sg75
(lp3224
g68
(g89
g70
NtRp3225
(dp3226
g73
(dp3227
g93
g94
ssg82
g3221
sg75
(lp3228
g402
asbag68
(g89
g70
NtRp3229
(dp3230
g73
(dp3231
g100
g101
ssg82
g3221
sg75
(lp3232
S':'
asbag68
(g89
g70
NtRp3233
(dp3234
g73
(dp3235
sg82
g3221
sg75
(lp3236
g68
(g69
g70
NtRp3237
(dp3238
g73
(dp3239
g81
I3
ssg82
g3233
sg75
(lp3240
S''
asbasbasbag68
(g84
g70
NtRp3241
(dp3242
g73
(dp3243
sg82
g3137
sg75
(lp3244
g68
(g89
g70
NtRp3245
(dp3246
g73
(dp3247
g93
g94
ssg82
g3241
sg75
(lp3248
g423
asbag68
(g89
g70
NtRp3249
(dp3250
g73
(dp3251
g100
g101
ssg82
g3241
sg75
(lp3252
S':'
asbag68
(g89
g70
NtRp3253
(dp3254
g73
(dp3255
sg82
g3241
sg75
(lp3256
g68
(g69
g70
NtRp3257
(dp3258
g73
(dp3259
g81
I3
ssg82
g3253
sg75
(lp3260
S'/'
asbasbasbag68
(g84
g70
NtRp3261
(dp3262
g73
(dp3263
sg82
g3137
sg75
(lp3264
g68
(g89
g70
NtRp3265
(dp3266
g73
(dp3267
g93
g94
ssg82
g3261
sg75
(lp3268
g444
asbag68
(g89
g70
NtRp3269
(dp3270
g73
(dp3271
g100
g101
ssg82
g3261
sg75
(lp3272
S':'
asbag68
(g89
g70
NtRp3273
(dp3274
g73
(dp3275
sg82
g3261
sg75
(lp3276
g68
(g69
g70
NtRp3277
(dp3278
g73
(dp3279
g81
I3
ssg82
g3273
sg75
(lp3280
S''
asbasbasbag68
(g84
g70
NtRp3281
(dp3282
g73
(dp3283
sg82
g3137
sg75
(lp3284
g68
(g89
g70
NtRp3285
(dp3286
g73
(dp3287
g93
g94
ssg82
g3281
sg75
(lp3288
g465
asbag68
(g89
g70
NtRp3289
(dp3290
g73
(dp3291
g100
g101
ssg82
g3281
sg75
(lp3292
S':'
asbag68
(g89
g70
NtRp3293
(dp3294
g73
(dp3295
sg82
g3281
sg75
(lp3296
g68
(g69
g70
NtRp3297
(dp3298
g73
(dp3299
g81
I3
ssg82
g3293
sg75
(lp3300
S''
asbasbasbasbasbasbasbasbasbasbasbag68
(g84
g70
NtRp3301
(dp3302
g73
(dp3303
sg82
g3066
sg75
(lp3304
g68
(g89
g70
NtRp3305
(dp3306
g73
(dp3307
g93
g94
ssg82
g3301
sg75
(lp3308
S'delimiters'
p3309
asbag68
(g89
g70
NtRp3310
(dp3311
g73
(dp3312
g100
g101
ssg82
g3301
sg75
(lp3313
S':'
asbag68
(g89
g70
NtRp3314
(dp3315
g73
(dp3316
sg82
g3301
sg75
(lp3317
g68
(g69
g70
NtRp3318
(dp3319
g73
(dp3320
g81
I5
ssg82
g3314
sg75
(lp3321
g68
(g77
g70
NtRp3322
(dp3323
g73
(dp3324
g81
I4
ssg82
Nsg75
(lp3325
g68
(g84
g70
NtRp3326
(dp3327
g73
(dp3328
sg82
g3322
sg75
(lp3329
g68
(g89
g70
NtRp3330
(dp3331
g73
(dp3332
sg82
g3326
sg75
(lp3333
g68
(g69
g70
NtRp3334
(dp3335
g73
(dp3336
g81
I4
ssg82
g3330
sg75
(lp3337
S'{{'
p3338
asbasbasbag68
(g84
g70
NtRp3339
(dp3340
g73
(dp3341
sg82
g3322
sg75
(lp3342
g68
(g89
g70
NtRp3343
(dp3344
g73
(dp3345
sg82
g3339
sg75
(lp3346
g68
(g69
g70
NtRp3347
(dp3348
g73
(dp3349
g81
I4
ssg82
g3343
sg75
(lp3350
S'}}'
p3351
asbasbasbasbasbasbasbag68
(g84
g70
NtRp3352
(dp3353
g73
(dp3354
sg82
g3066
sg75
(lp3355
g68
(g89
g70
NtRp3356
(dp3357
g73
(dp3358
g93
g94
ssg82
g3352
sg75
(lp3359
S'files'
p3360
asbag68
(g89
g70
NtRp3361
(dp3362
g73
(dp3363
g100
g101
ssg82
g3352
sg75
(lp3364
S':'
asbag68
(g89
g70
NtRp3365
(dp3366
g73
(dp3367
sg82
g3352
sg75
(lp3368
g68
(g69
g70
NtRp3369
(dp3370
g73
(dp3371
g81
I5
ssg82
g3365
sg75
(lp3372
g68
(g77
g70
NtRp3373
(dp3374
g73
(dp3375
g81
I4
ssg82
Nsg75
(lp3376
sbasbasbasbag68
(g84
g70
NtRp3377
(dp3378
g73
(dp3379
sg82
g3066
sg75
(lp3380
g68
(g89
g70
NtRp3381
(dp3382
g73
(dp3383
g93
g94
ssg82
g3377
sg75
(lp3384
S'flash'
p3385
asbag68
(g89
g70
NtRp3386
(dp3387
g73
(dp3388
g100
g101
ssg82
g3377
sg75
(lp3389
S':'
asbag68
(g89
g70
NtRp3390
(dp3391
g73
(dp3392
sg82
g3377
sg75
(lp3393
g68
(g69
g70
NtRp3394
(dp3395
g73
(dp3396
g81
I5
ssg82
g3390
sg75
(lp3397
S''
asbasbasbag68
(g84
g70
NtRp3398
(dp3399
g73
(dp3400
sg82
g3066
sg75
(lp3401
g68
(g89
g70
NtRp3402
(dp3403
g73
(dp3404
g93
g94
ssg82
g3398
sg75
(lp3405
S'generic_patterns'
p3406
asbag68
(g89
g70
NtRp3407
(dp3408
g73
(dp3409
g100
g101
ssg82
g3398
sg75
(lp3410
S':'
asbag68
(g89
g70
NtRp3411
(dp3412
g73
(dp3413
sg82
g3398
sg75
(lp3414
g68
(g69
g70
NtRp3415
(dp3416
g73
(dp3417
g81
I5
ssg82
g3411
sg75
(lp3418
g68
(g77
g70
NtRp3419
(dp3420
g73
(dp3421
g81
I4
ssg82
Nsg75
(lp3422
g68
(g84
g70
NtRp3423
(dp3424
g73
(dp3425
sg82
g3419
sg75
(lp3426
g68
(g89
g70
NtRp3427
(dp3428
g73
(dp3429
sg82
g3423
sg75
(lp3430
g68
(g69
g70
NtRp3431
(dp3432
g73
(dp3433
g81
I4
ssg82
g3427
sg75
(lp3434
S'*'
asbasbasbasbasbasbasbag68
(g84
g70
NtRp3435
(dp3436
g73
(dp3437
sg82
g3066
sg75
(lp3438
g68
(g89
g70
NtRp3439
(dp3440
g73
(dp3441
g93
g94
ssg82
g3435
sg75
(lp3442
S'google_analytics_id'
p3443
asbag68
(g89
g70
NtRp3444
(dp3445
g73
(dp3446
g100
g101
ssg82
g3435
sg75
(lp3447
S':'
asbag68
(g89
g70
NtRp3448
(dp3449
g73
(dp3450
sg82
g3435
sg75
(lp3451
g68
(g69
g70
NtRp3452
(dp3453
g73
(dp3454
g81
I5
ssg82
g3448
sg75
(lp3455
S'None'
p3456
asbasbasbag68
(g84
g70
NtRp3457
(dp3458
g73
(dp3459
sg82
g3066
sg75
(lp3460
g68
(g89
g70
NtRp3461
(dp3462
g73
(dp3463
g93
g94
ssg82
g3457
sg75
(lp3464
S'headers'
p3465
asbag68
(g89
g70
NtRp3466
(dp3467
g73
(dp3468
g100
g101
ssg82
g3457
sg75
(lp3469
S':'
asbag68
(g89
g70
NtRp3470
(dp3471
g73
(dp3472
sg82
g3457
sg75
(lp3473
g68
(g69
g70
NtRp3474
(dp3475
g73
(dp3476
g81
I5
ssg82
g3470
sg75
(lp3477
g68
(g77
g70
NtRp3478
(dp3479
g73
(dp3480
g81
I4
ssg82
Nsg75
(lp3481
g68
(g84
g70
NtRp3482
(dp3483
g73
(dp3484
sg82
g3478
sg75
(lp3485
g68
(g89
g70
NtRp3486
(dp3487
g73
(dp3488
g93
g94
ssg82
g3482
sg75
(lp3489
S'X-Powered-By'
p3490
asbag68
(g89
g70
NtRp3491
(dp3492
g73
(dp3493
g100
g101
ssg82
g3482
sg75
(lp3494
S':'
asbag68
(g89
g70
NtRp3495
(dp3496
g73
(dp3497
sg82
g3482
sg75
(lp3498
g68
(g69
g70
NtRp3499
(dp3500
g73
(dp3501
g81
I4
ssg82
g3495
sg75
(lp3502
S'web2py'
p3503
asbasbasbasbasbasbasbag68
(g84
g70
NtRp3504
(dp3505
g73
(dp3506
sg82
g3066
sg75
(lp3507
g68
(g89
g70
NtRp3508
(dp3509
g73
(dp3510
g93
g94
ssg82
g3504
sg75
(lp3511
S'logo'
p3512
asbag68
(g89
g70
NtRp3513
(dp3514
g73
(dp3515
g100
g101
ssg82
g3504
sg75
(lp3516
S':'
asbag68
(g89
g70
NtRp3517
(dp3518
g73
(dp3519
sg82
g3504
sg75
(lp3520
g68
(g69
g70
NtRp3521
(dp3522
g73
(dp3523
g81
I5
ssg82
g3517
sg75
(lp3524
g68
(cgluon.html
A
p3525
g70
NtRp3526
(dp3527
g73
(dp3528
S'_class'
p3529
S'brand'
p3530
sS'_href'
p3531
S'http://www.web2py.com/'
p3532
ssg82
Nsg75
(lp3533
g68
(cgluon.html
B
p3534
g70
NtRp3535
(dp3536
g73
(dp3537
sg82
g3526
sg75
(lp3538
S'web'
p3539
ag68
(cgluon.html
SPAN
p3540
g70
NtRp3541
(dp3542
g73
(dp3543
sg82
g3535
sg75
(lp3544
I2
asbaS'py'
p3545
asbacgluon.html
XML_unpickle
p3546
(S's\r\x00\x00\x00&trade;&nbsp;'
tRp3547
asbasbasbasbag68
(g84
g70
NtRp3548
(dp3549
g73
(dp3550
sg82
g3066
sg75
(lp3551
g68
(g89
g70
NtRp3552
(dp3553
g73
(dp3554
g93
g94
ssg82
g3548
sg75
(lp3555
S'menu'
p3556
asbag68
(g89
g70
NtRp3557
(dp3558
g73
(dp3559
g100
g101
ssg82
g3548
sg75
(lp3560
S':'
asbag68
(g89
g70
NtRp3561
(dp3562
g73
(dp3563
sg82
g3548
sg75
(lp3564
g68
(g69
g70
NtRp3565
(dp3566
g73
(dp3567
g81
I5
ssg82
g3561
sg75
(lp3568
g68
(g77
g70
NtRp3569
(dp3570
g73
(dp3571
g81
I4
ssg82
Nsg75
(lp3572
g68
(g84
g70
NtRp3573
(dp3574
g73
(dp3575
sg82
g3569
sg75
(lp3576
g68
(g89
g70
NtRp3577
(dp3578
g73
(dp3579
sg82
g3573
sg75
(lp3580
g68
(g69
g70
NtRp3581
(dp3582
g73
(dp3583
g81
I4
ssg82
g3577
sg75
(lp3584
g68
(g77
g70
NtRp3585
(dp3586
g73
(dp3587
g81
I3
ssg82
Nsg75
(lp3588
g68
(g84
g70
NtRp3589
(dp3590
g73
(dp3591
sg82
g3585
sg75
(lp3592
g68
(g89
g70
NtRp3593
(dp3594
g73
(dp3595
sg82
g3589
sg75
(lp3596
g68
(g69
g70
NtRp3597
(dp3598
g73
(dp3599
g81
I3
ssg82
g3593
sg75
(lp3600
cgluon.languages
lazyT_unpickle
p3601
(S's\x04\x00\x00\x00Home'
tRp3602
asbasbasbag68
(g84
g70
NtRp3603
(dp3604
g73
(dp3605
sg82
g3585
sg75
(lp3606
g68
(g89
g70
NtRp3607
(dp3608
g73
(dp3609
sg82
g3603
sg75
(lp3610
g68
(g69
g70
NtRp3611
(dp3612
g73
(dp3613
g81
I3
ssg82
g3607
sg75
(lp3614
g111
asbasbasbag68
(g84
g70
NtRp3615
(dp3616
g73
(dp3617
sg82
g3585
sg75
(lp3618
g68
(g89
g70
NtRp3619
(dp3620
g73
(dp3621
sg82
g3615
sg75
(lp3622
g68
(g69
g70
NtRp3623
(dp3624
g73
(dp3625
g81
I3
ssg82
g3619
sg75
(lp3626
S'/shipra/default/index'
p3627
asbasbasbag68
(g84
g70
NtRp3628
(dp3629
g73
(dp3630
sg82
g3585
sg75
(lp3631
g68
(g89
g70
NtRp3632
(dp3633
g73
(dp3634
sg82
g3628
sg75
(lp3635
g68
(g69
g70
NtRp3636
(dp3637
g73
(dp3638
g81
I3
ssg82
g3632
sg75
(lp3639
g68
(g77
g70
NtRp3640
(dp3641
g73
(dp3642
g81
I2
ssg82
Nsg75
(lp3643
sbasbasbasbasbasbasbasbag68
(g84
g70
NtRp3644
(dp3645
g73
(dp3646
sg82
g3569
sg75
(lp3647
g68
(g89
g70
NtRp3648
(dp3649
g73
(dp3650
sg82
g3644
sg75
(lp3651
g68
(g69
g70
NtRp3652
(dp3653
g73
(dp3654
g81
I4
ssg82
g3648
sg75
(lp3655
g68
(g77
g70
NtRp3656
(dp3657
g73
(dp3658
g81
I3
ssg82
Nsg75
(lp3659
g68
(g84
g70
NtRp3660
(dp3661
g73
(dp3662
sg82
g3656
sg75
(lp3663
g68
(g89
g70
NtRp3664
(dp3665
g73
(dp3666
sg82
g3660
sg75
(lp3667
g68
(g69
g70
NtRp3668
(dp3669
g73
(dp3670
g81
I3
ssg82
g3664
sg75
(lp3671
g68
(g3540
g70
NtRp3672
(dp3673
g73
(dp3674
g3529
S'highlighted'
p3675
ssg82
Nsg75
(lp3676
g3503
asbasbasbasbag68
(g84
g70
NtRp3677
(dp3678
g73
(dp3679
sg82
g3656
sg75
(lp3680
g68
(g89
g70
NtRp3681
(dp3682
g73
(dp3683
sg82
g3677
sg75
(lp3684
g68
(g69
g70
NtRp3685
(dp3686
g73
(dp3687
g81
I3
ssg82
g3681
sg75
(lp3688
g111
asbasbasbag68
(g84
g70
NtRp3689
(dp3690
g73
(dp3691
sg82
g3656
sg75
(lp3692
g68
(g89
g70
NtRp3693
(dp3694
g73
(dp3695
sg82
g3689
sg75
(lp3696
g68
(g69
g70
NtRp3697
(dp3698
g73
(dp3699
g81
I3
ssg82
g3693
sg75
(lp3700
S'http://web2py.com'
p3701
asbasbasbag68
(g84
g70
NtRp3702
(dp3703
g73
(dp3704
sg82
g3656
sg75
(lp3705
g68
(g89
g70
NtRp3706
(dp3707
g73
(dp3708
sg82
g3702
sg75
(lp3709
g68
(g69
g70
NtRp3710
(dp3711
g73
(dp3712
g81
I3
ssg82
g3706
sg75
(lp3713
g68
(g77
g70
NtRp3714
(dp3715
g73
(dp3716
g81
I2
ssg82
Nsg75
(lp3717
g68
(g84
g70
NtRp3718
(dp3719
g73
(dp3720
sg82
g3714
sg75
(lp3721
g68
(g89
g70
NtRp3722
(dp3723
g73
(dp3724
sg82
g3718
sg75
(lp3725
g68
(g69
g70
NtRp3726
(dp3727
g73
(dp3728
g81
I2
ssg82
g3722
sg75
(lp3729
g68
(g77
g70
NtRp3730
(dp3731
g73
(dp3732
g81
I1
ssg82
Nsg75
(lp3733
g68
(g84
g70
NtRp3734
(dp3735
g73
(dp3736
sg82
g3730
sg75
(lp3737
g68
(g89
g70
NtRp3738
(dp3739
g73
(dp3740
sg82
g3734
sg75
(lp3741
g68
(g69
g70
NtRp3742
(dp3743
g73
(dp3744
g81
I1
ssg82
g3738
sg75
(lp3745
g3601
(S's\x08\x00\x00\x00My Sites'
tRp3746
asbasbasbag68
(g84
g70
NtRp3747
(dp3748
g73
(dp3749
sg82
g3730
sg75
(lp3750
g68
(g89
g70
NtRp3751
(dp3752
g73
(dp3753
sg82
g3747
sg75
(lp3754
g68
(g69
g70
NtRp3755
(dp3756
g73
(dp3757
g81
I1
ssg82
g3751
sg75
(lp3758
I00
asbasbasbag68
(g84
g70
NtRp3759
(dp3760
g73
(dp3761
sg82
g3730
sg75
(lp3762
g68
(g89
g70
NtRp3763
(dp3764
g73
(dp3765
sg82
g3759
sg75
(lp3766
g68
(g69
g70
NtRp3767
(dp3768
g73
(dp3769
g81
I1
ssg82
g3763
sg75
(lp3770
S'/admin/default/site'
p3771
asbasbasbasbasbasbasbag68
(g84
g70
NtRp3772
(dp3773
g73
(dp3774
sg82
g3714
sg75
(lp3775
g68
(g89
g70
NtRp3776
(dp3777
g73
(dp3778
sg82
g3772
sg75
(lp3779
g68
(g69
g70
NtRp3780
(dp3781
g73
(dp3782
g81
I2
ssg82
g3776
sg75
(lp3783
g68
(g77
g70
NtRp3784
(dp3785
g73
(dp3786
g81
I1
ssg82
Nsg75
(lp3787
g68
(g84
g70
NtRp3788
(dp3789
g73
(dp3790
sg82
g3784
sg75
(lp3791
g68
(g89
g70
NtRp3792
(dp3793
g73
(dp3794
sg82
g3788
sg75
(lp3795
g68
(g69
g70
NtRp3796
(dp3797
g73
(dp3798
g81
I1
ssg82
g3792
sg75
(lp3799
g3601
(S's\x08\x00\x00\x00This App'
tRp3800
asbasbasbag68
(g84
g70
NtRp3801
(dp3802
g73
(dp3803
sg82
g3784
sg75
(lp3804
g68
(g89
g70
NtRp3805
(dp3806
g73
(dp3807
sg82
g3801
sg75
(lp3808
g68
(g69
g70
NtRp3809
(dp3810
g73
(dp3811
g81
I1
ssg82
g3805
sg75
(lp3812
I00
asbasbasbag68
(g84
g70
NtRp3813
(dp3814
g73
(dp3815
sg82
g3784
sg75
(lp3816
g68
(g89
g70
NtRp3817
(dp3818
g73
(dp3819
sg82
g3813
sg75
(lp3820
g68
(g69
g70
NtRp3821
(dp3822
g73
(dp3823
g81
I1
ssg82
g3817
sg75
(lp3824
S'/admin/default/design/shipra'
p3825
asbasbasbag68
(g84
g70
NtRp3826
(dp3827
g73
(dp3828
sg82
g3784
sg75
(lp3829
g68
(g89
g70
NtRp3830
(dp3831
g73
(dp3832
sg82
g3826
sg75
(lp3833
g68
(g69
g70
NtRp3834
(dp3835
g73
(dp3836
g81
I1
ssg82
g3830
sg75
(lp3837
(lp3838
(g3601
(S's\n\x00\x00\x00Controller'
tRp3839
I00
S'/admin/default/edit/shipra/controllers/default.py'
tp3840
a(g3601
(S's\x04\x00\x00\x00View'
tRp3841
I00
S'/admin/default/edit/shipra/views/default/user.html'
tp3842
a(g3601
(S's\x06\x00\x00\x00Layout'
tRp3843
I00
S'/admin/default/edit/shipra/views/layout.html'
tp3844
a(g3601
(S's\n\x00\x00\x00Stylesheet'
tRp3845
I00
S'/admin/default/edit/shipra/static/css/web2py.css'
tp3846
a(g3601
(S's\x08\x00\x00\x00DB Model'
tRp3847
I00
S'/admin/default/edit/shipra/models/db.py'
tp3848
a(g3601
(S's\n\x00\x00\x00Menu Model'
tRp3849
I00
S'/admin/default/edit/shipra/models/menu.py'
tp3850
a(g3601
(S's\x08\x00\x00\x00Database'
tRp3851
I00
S'/shipra/appadmin/index'
tp3852
a(g3601
(S's\x06\x00\x00\x00Errors'
tRp3853
I00
S'/admin/default/errors/shipra'
tp3854
a(g3601
(S's\x05\x00\x00\x00About'
tRp3855
I00
S'/admin/default/about/shipra'
tp3856
aasbasbasbasbasbasbasbag68
(g84
g70
NtRp3857
(dp3858
g73
(dp3859
sg82
g3714
sg75
(lp3860
g68
(g89
g70
NtRp3861
(dp3862
g73
(dp3863
sg82
g3857
sg75
(lp3864
g68
(g69
g70
NtRp3865
(dp3866
g73
(dp3867
g81
I2
ssg82
g3861
sg75
(lp3868
g68
(g77
g70
NtRp3869
(dp3870
g73
(dp3871
g81
I1
ssg82
Nsg75
(lp3872
g68
(g84
g70
NtRp3873
(dp3874
g73
(dp3875
sg82
g3869
sg75
(lp3876
g68
(g89
g70
NtRp3877
(dp3878
g73
(dp3879
sg82
g3873
sg75
(lp3880
g68
(g69
g70
NtRp3881
(dp3882
g73
(dp3883
g81
I1
ssg82
g3877
sg75
(lp3884
S'web2py.com'
p3885
asbasbasbag68
(g84
g70
NtRp3886
(dp3887
g73
(dp3888
sg82
g3869
sg75
(lp3889
g68
(g89
g70
NtRp3890
(dp3891
g73
(dp3892
sg82
g3886
sg75
(lp3893
g68
(g69
g70
NtRp3894
(dp3895
g73
(dp3896
g81
I1
ssg82
g3890
sg75
(lp3897
I00
asbasbasbag68
(g84
g70
NtRp3898
(dp3899
g73
(dp3900
sg82
g3869
sg75
(lp3901
g68
(g89
g70
NtRp3902
(dp3903
g73
(dp3904
sg82
g3898
sg75
(lp3905
g68
(g69
g70
NtRp3906
(dp3907
g73
(dp3908
g81
I1
ssg82
g3902
sg75
(lp3909
S'http://www.web2py.com'
p3910
asbasbasbag68
(g84
g70
NtRp3911
(dp3912
g73
(dp3913
sg82
g3869
sg75
(lp3914
g68
(g89
g70
NtRp3915
(dp3916
g73
(dp3917
sg82
g3911
sg75
(lp3918
g68
(g69
g70
NtRp3919
(dp3920
g73
(dp3921
g81
I1
ssg82
g3915
sg75
(lp3922
(lp3923
(g3601
(S's\x08\x00\x00\x00Download'
tRp3924
I00
S'http://www.web2py.com/examples/default/download'
p3925
tp3926
a(g3601
(S's\x07\x00\x00\x00Support'
tRp3927
I00
S'http://www.web2py.com/examples/default/support'
p3928
tp3929
a(g3601
(S's\x04\x00\x00\x00Demo'
tRp3930
I00
S'http://web2py.com/demo_admin'
p3931
tp3932
a(g3601
(S's\x0e\x00\x00\x00Quick Examples'
tRp3933
I00
S'http://web2py.com/examples/default/examples'
p3934
tp3935
a(g3601
(S's\x03\x00\x00\x00FAQ'
tRp3936
I00
S'http://web2py.com/AlterEgo'
p3937
tp3938
a(g3601
(S's\x06\x00\x00\x00Videos'
tRp3939
I00
S'http://www.web2py.com/examples/default/videos/'
p3940
tp3941
a(g3601
(S's\x11\x00\x00\x00Free Applications'
tRp3942
I00
S'http://web2py.com/appliances'
p3943
tp3944
a(g3601
(S's\x07\x00\x00\x00Plugins'
tRp3945
I00
S'http://web2py.com/plugins'
p3946
tp3947
a(g3601
(S's\x07\x00\x00\x00Layouts'
tRp3948
I00
S'http://web2py.com/layouts'
p3949
tp3950
a(g3601
(S's\x07\x00\x00\x00Recipes'
tRp3951
I00
S'http://web2pyslices.com/'
p3952
tp3953
a(g3601
(S's\x08\x00\x00\x00Semantic'
tRp3954
I00
S'http://web2py.com/semantic'
p3955
tp3956
aasbasbasbasbasbasbasbag68
(g84
g70
NtRp3957
(dp3958
g73
(dp3959
sg82
g3714
sg75
(lp3960
g68
(g89
g70
NtRp3961
(dp3962
g73
(dp3963
sg82
g3957
sg75
(lp3964
g68
(g69
g70
NtRp3965
(dp3966
g73
(dp3967
g81
I2
ssg82
g3961
sg75
(lp3968
g68
(g77
g70
NtRp3969
(dp3970
g73
(dp3971
g81
I1
ssg82
Nsg75
(lp3972
g68
(g84
g70
NtRp3973
(dp3974
g73
(dp3975
sg82
g3969
sg75
(lp3976
g68
(g89
g70
NtRp3977
(dp3978
g73
(dp3979
sg82
g3973
sg75
(lp3980
g68
(g69
g70
NtRp3981
(dp3982
g73
(dp3983
g81
I1
ssg82
g3977
sg75
(lp3984
g3601
(S's\r\x00\x00\x00Documentation'
tRp3985
asbasbasbag68
(g84
g70
NtRp3986
(dp3987
g73
(dp3988
sg82
g3969
sg75
(lp3989
g68
(g89
g70
NtRp3990
(dp3991
g73
(dp3992
sg82
g3986
sg75
(lp3993
g68
(g69
g70
NtRp3994
(dp3995
g73
(dp3996
g81
I1
ssg82
g3990
sg75
(lp3997
I00
asbasbasbag68
(g84
g70
NtRp3998
(dp3999
g73
(dp4000
sg82
g3969
sg75
(lp4001
g68
(g89
g70
NtRp4002
(dp4003
g73
(dp4004
sg82
g3998
sg75
(lp4005
g68
(g69
g70
NtRp4006
(dp4007
g73
(dp4008
g81
I1
ssg82
g4002
sg75
(lp4009
S'http://www.web2py.com/book'
p4010
asbasbasbag68
(g84
g70
NtRp4011
(dp4012
g73
(dp4013
sg82
g3969
sg75
(lp4014
g68
(g89
g70
NtRp4015
(dp4016
g73
(dp4017
sg82
g4011
sg75
(lp4018
g68
(g69
g70
NtRp4019
(dp4020
g73
(dp4021
g81
I1
ssg82
g4015
sg75
(lp4022
(lp4023
(g3601
(S's\x07\x00\x00\x00Preface'
tRp4024
I00
S'http://www.web2py.com/book/default/chapter/00'
p4025
tp4026
a(g3601
(S's\x0c\x00\x00\x00Introduction'
tRp4027
I00
S'http://www.web2py.com/book/default/chapter/01'
p4028
tp4029
a(g3601
(S's\x06\x00\x00\x00Python'
tRp4030
I00
S'http://www.web2py.com/book/default/chapter/02'
p4031
tp4032
a(g3601
(S's\x08\x00\x00\x00Overview'
tRp4033
I00
S'http://www.web2py.com/book/default/chapter/03'
p4034
tp4035
a(g3601
(S's\x08\x00\x00\x00The Core'
tRp4036
I00
S'http://www.web2py.com/book/default/chapter/04'
p4037
tp4038
a(g3601
(S's\t\x00\x00\x00The Views'
tRp4039
I00
S'http://www.web2py.com/book/default/chapter/05'
p4040
tp4041
a(g3601
(S's\x08\x00\x00\x00Database'
tRp4042
I00
S'http://www.web2py.com/book/default/chapter/06'
p4043
tp4044
a(g3601
(S's\x14\x00\x00\x00Forms and Validators'
tRp4045
I00
S'http://www.web2py.com/book/default/chapter/07'
p4046
tp4047
a(g3601
(S's\r\x00\x00\x00Email and SMS'
tRp4048
I00
S'http://www.web2py.com/book/default/chapter/08'
p4049
tp4050
a(g3601
(S's\x0e\x00\x00\x00Access Control'
tRp4051
I00
S'http://www.web2py.com/book/default/chapter/09'
p4052
tp4053
a(g3601
(S's\x08\x00\x00\x00Services'
tRp4054
I00
S'http://www.web2py.com/book/default/chapter/10'
p4055
tp4056
a(g3601
(S's\x0c\x00\x00\x00Ajax Recipes'
tRp4057
I00
S'http://www.web2py.com/book/default/chapter/11'
p4058
tp4059
a(g3601
(S's\x16\x00\x00\x00Components and Plugins'
tRp4060
I00
S'http://www.web2py.com/book/default/chapter/12'
p4061
tp4062
a(g3601
(S's\x12\x00\x00\x00Deployment Recipes'
tRp4063
I00
S'http://www.web2py.com/book/default/chapter/13'
p4064
tp4065
a(g3601
(S's\r\x00\x00\x00Other Recipes'
tRp4066
I00
S'http://www.web2py.com/book/default/chapter/14'
p4067
tp4068
a(g3601
(S's\r\x00\x00\x00Buy this book'
tRp4069
I00
S'http://stores.lulu.com/web2py'
p4070
tp4071
aasbasbasbasbasbasbasbag68
(g84
g70
NtRp4072
(dp4073
g73
(dp4074
sg82
g3714
sg75
(lp4075
g68
(g89
g70
NtRp4076
(dp4077
g73
(dp4078
sg82
g4072
sg75
(lp4079
g68
(g69
g70
NtRp4080
(dp4081
g73
(dp4082
g81
I2
ssg82
g4076
sg75
(lp4083
g68
(g77
g70
NtRp4084
(dp4085
g73
(dp4086
g81
I1
ssg82
Nsg75
(lp4087
g68
(g84
g70
NtRp4088
(dp4089
g73
(dp4090
sg82
g4084
sg75
(lp4091
g68
(g89
g70
NtRp4092
(dp4093
g73
(dp4094
sg82
g4088
sg75
(lp4095
g68
(g69
g70
NtRp4096
(dp4097
g73
(dp4098
g81
I1
ssg82
g4092
sg75
(lp4099
g3601
(S's\t\x00\x00\x00Community'
tRp4100
asbasbasbag68
(g84
g70
NtRp4101
(dp4102
g73
(dp4103
sg82
g4084
sg75
(lp4104
g68
(g89
g70
NtRp4105
(dp4106
g73
(dp4107
sg82
g4101
sg75
(lp4108
g68
(g69
g70
NtRp4109
(dp4110
g73
(dp4111
g81
I1
ssg82
g4105
sg75
(lp4112
I00
asbasbasbag68
(g84
g70
NtRp4113
(dp4114
g73
(dp4115
sg82
g4084
sg75
(lp4116
g68
(g89
g70
NtRp4117
(dp4118
g73
(dp4119
sg82
g4113
sg75
(lp4120
g68
(g69
g70
NtRp4121
(dp4122
g73
(dp4123
g81
I1
ssg82
g4117
sg75
(lp4124
Nasbasbasbag68
(g84
g70
NtRp4125
(dp4126
g73
(dp4127
sg82
g4084
sg75
(lp4128
g68
(g89
g70
NtRp4129
(dp4130
g73
(dp4131
sg82
g4125
sg75
(lp4132
g68
(g69
g70
NtRp4133
(dp4134
g73
(dp4135
g81
I1
ssg82
g4129
sg75
(lp4136
(lp4137
(g3601
(S's\x06\x00\x00\x00Groups'
tRp4138
I00
S'http://www.web2py.com/examples/default/usergroups'
p4139
tp4140
a(g3601
(S's\x07\x00\x00\x00Twitter'
tRp4141
I00
S'http://twitter.com/web2py'
p4142
tp4143
a(g3601
(S's\t\x00\x00\x00Live Chat'
tRp4144
I00
S'http://webchat.freenode.net/?channels=web2py'
p4145
tp4146
aasbasbasbasbasbasbasbag68
(g84
g70
NtRp4147
(dp4148
g73
(dp4149
sg82
g3714
sg75
(lp4150
g68
(g89
g70
NtRp4151
(dp4152
g73
(dp4153
sg82
g4147
sg75
(lp4154
g68
(g69
g70
NtRp4155
(dp4156
g73
(dp4157
g81
I2
ssg82
g4151
sg75
(lp4158
g68
(g77
g70
NtRp4159
(dp4160
g73
(dp4161
g81
I1
ssg82
Nsg75
(lp4162
g68
(g84
g70
NtRp4163
(dp4164
g73
(dp4165
sg82
g4159
sg75
(lp4166
g68
(g89
g70
NtRp4167
(dp4168
g73
(dp4169
sg82
g4163
sg75
(lp4170
g68
(g69
g70
NtRp4171
(dp4172
g73
(dp4173
g81
I1
ssg82
g4167
sg75
(lp4174
g3601
(S's\x07\x00\x00\x00Plugins'
tRp4175
asbasbasbag68
(g84
g70
NtRp4176
(dp4177
g73
(dp4178
sg82
g4159
sg75
(lp4179
g68
(g89
g70
NtRp4180
(dp4181
g73
(dp4182
sg82
g4176
sg75
(lp4183
g68
(g69
g70
NtRp4184
(dp4185
g73
(dp4186
g81
I1
ssg82
g4180
sg75
(lp4187
I00
asbasbasbag68
(g84
g70
NtRp4188
(dp4189
g73
(dp4190
sg82
g4159
sg75
(lp4191
g68
(g89
g70
NtRp4192
(dp4193
g73
(dp4194
sg82
g4188
sg75
(lp4195
g68
(g69
g70
NtRp4196
(dp4197
g73
(dp4198
g81
I1
ssg82
g4192
sg75
(lp4199
Nasbasbasbag68
(g84
g70
NtRp4200
(dp4201
g73
(dp4202
sg82
g4159
sg75
(lp4203
g68
(g89
g70
NtRp4204
(dp4205
g73
(dp4206
sg82
g4200
sg75
(lp4207
g68
(g69
g70
NtRp4208
(dp4209
g73
(dp4210
g81
I1
ssg82
g4204
sg75
(lp4211
(lp4212
(S'plugin_wiki'
p4213
I00
S'http://web2py.com/examples/default/download'
p4214
tp4215
a(g3601
(S's\r\x00\x00\x00Other Plugins'
tRp4216
I00
g3946
tp4217
a(g3601
(S's\x0e\x00\x00\x00Layout Plugins'
tRp4218
I00
g3949
tp4219
aasbasbasbasbasbasbasbasbasbasbasbasbasbasbasbasbasbasbasbag68
(g84
g70
NtRp4220
(dp4221
g73
(dp4222
sg82
g3066
sg75
(lp4223
g68
(g89
g70
NtRp4224
(dp4225
g73
(dp4226
g93
g94
ssg82
g4220
sg75
(lp4227
S'meta'
p4228
asbag68
(g89
g70
NtRp4229
(dp4230
g73
(dp4231
g100
g101
ssg82
g4220
sg75
(lp4232
S':'
asbag68
(g89
g70
NtRp4233
(dp4234
g73
(dp4235
sg82
g4220
sg75
(lp4236
g68
(g69
g70
NtRp4237
(dp4238
g73
(dp4239
g81
I5
ssg82
g4233
sg75
(lp4240
g68
(g77
g70
NtRp4241
(dp4242
g73
(dp4243
g81
I4
ssg82
Nsg75
(lp4244
g68
(g84
g70
NtRp4245
(dp4246
g73
(dp4247
sg82
g4241
sg75
(lp4248
g68
(g89
g70
NtRp4249
(dp4250
g73
(dp4251
g93
g94
ssg82
g4245
sg75
(lp4252
S'author'
p4253
asbag68
(g89
g70
NtRp4254
(dp4255
g73
(dp4256
g100
g101
ssg82
g4245
sg75
(lp4257
S':'
asbag68
(g89
g70
NtRp4258
(dp4259
g73
(dp4260
sg82
g4245
sg75
(lp4261
g68
(g69
g70
NtRp4262
(dp4263
g73
(dp4264
g81
I4
ssg82
g4258
sg75
(lp4265
S'Your Name <you@example.com>'
p4266
asbasbasbag68
(g84
g70
NtRp4267
(dp4268
g73
(dp4269
sg82
g4241
sg75
(lp4270
g68
(g89
g70
NtRp4271
(dp4272
g73
(dp4273
g93
g94
ssg82
g4267
sg75
(lp4274
S'description'
p4275
asbag68
(g89
g70
NtRp4276
(dp4277
g73
(dp4278
g100
g101
ssg82
g4267
sg75
(lp4279
S':'
asbag68
(g89
g70
NtRp4280
(dp4281
g73
(dp4282
sg82
g4267
sg75
(lp4283
g68
(g69
g70
NtRp4284
(dp4285
g73
(dp4286
g81
I4
ssg82
g4280
sg75
(lp4287
S'a cool new app'
p4288
asbasbasbag68
(g84
g70
NtRp4289
(dp4290
g73
(dp4291
sg82
g4241
sg75
(lp4292
g68
(g89
g70
NtRp4293
(dp4294
g73
(dp4295
g93
g94
ssg82
g4289
sg75
(lp4296
S'generator'
p4297
asbag68
(g89
g70
NtRp4298
(dp4299
g73
(dp4300
g100
g101
ssg82
g4289
sg75
(lp4301
S':'
asbag68
(g89
g70
NtRp4302
(dp4303
g73
(dp4304
sg82
g4289
sg75
(lp4305
g68
(g69
g70
NtRp4306
(dp4307
g73
(dp4308
g81
I4
ssg82
g4302
sg75
(lp4309
S'Web2py Web Framework'
p4310
asbasbasbag68
(g84
g70
NtRp4311
(dp4312
g73
(dp4313
sg82
g4241
sg75
(lp4314
g68
(g89
g70
NtRp4315
(dp4316
g73
(dp4317
g93
g94
ssg82
g4311
sg75
(lp4318
S'keywords'
p4319
asbag68
(g89
g70
NtRp4320
(dp4321
g73
(dp4322
g100
g101
ssg82
g4311
sg75
(lp4323
S':'
asbag68
(g89
g70
NtRp4324
(dp4325
g73
(dp4326
sg82
g4311
sg75
(lp4327
g68
(g69
g70
NtRp4328
(dp4329
g73
(dp4330
g81
I4
ssg82
g4324
sg75
(lp4331
S'web2py, python, framework'
p4332
asbasbasbasbasbasbasbag68
(g84
g70
NtRp4333
(dp4334
g73
(dp4335
sg82
g3066
sg75
(lp4336
g68
(g89
g70
NtRp4337
(dp4338
g73
(dp4339
g93
g94
ssg82
g4333
sg75
(lp4340
S'models_to_run'
p4341
asbag68
(g89
g70
NtRp4342
(dp4343
g73
(dp4344
g100
g101
ssg82
g4333
sg75
(lp4345
S':'
asbag68
(g89
g70
NtRp4346
(dp4347
g73
(dp4348
sg82
g4333
sg75
(lp4349
g68
(g69
g70
NtRp4350
(dp4351
g73
(dp4352
g81
I5
ssg82
g4346
sg75
(lp4353
g68
(g77
g70
NtRp4354
(dp4355
g73
(dp4356
g81
I4
ssg82
Nsg75
(lp4357
g68
(g84
g70
NtRp4358
(dp4359
g73
(dp4360
sg82
g4354
sg75
(lp4361
g68
(g89
g70
NtRp4362
(dp4363
g73
(dp4364
sg82
g4358
sg75
(lp4365
g68
(g69
g70
NtRp4366
(dp4367
g73
(dp4368
g81
I4
ssg82
g4362
sg75
(lp4369
S'^\\w+\\.py$'
p4370
asbasbasbag68
(g84
g70
NtRp4371
(dp4372
g73
(dp4373
sg82
g4354
sg75
(lp4374
g68
(g89
g70
NtRp4375
(dp4376
g73
(dp4377
sg82
g4371
sg75
(lp4378
g68
(g69
g70
NtRp4379
(dp4380
g73
(dp4381
g81
I4
ssg82
g4375
sg75
(lp4382
S'^default/\\w+\\.py$'
p4383
asbasbasbag68
(g84
g70
NtRp4384
(dp4385
g73
(dp4386
sg82
g4354
sg75
(lp4387
g68
(g89
g70
NtRp4388
(dp4389
g73
(dp4390
sg82
g4384
sg75
(lp4391
g68
(g69
g70
NtRp4392
(dp4393
g73
(dp4394
g81
I4
ssg82
g4388
sg75
(lp4395
S'^default/user/\\w+\\.py$'
p4396
asbasbasbasbasbasbasbag68
(g84
g70
NtRp4397
(dp4398
g73
(dp4399
sg82
g3066
sg75
(lp4400
g68
(g89
g70
NtRp4401
(dp4402
g73
(dp4403
g93
g94
ssg82
g4397
sg75
(lp4404
S'postprocessing'
p4405
asbag68
(g89
g70
NtRp4406
(dp4407
g73
(dp4408
g100
g101
ssg82
g4397
sg75
(lp4409
S':'
asbag68
(g89
g70
NtRp4410
(dp4411
g73
(dp4412
sg82
g4397
sg75
(lp4413
g68
(g69
g70
NtRp4414
(dp4415
g73
(dp4416
g81
I5
ssg82
g4410
sg75
(lp4417
g68
(g77
g70
NtRp4418
(dp4419
g73
(dp4420
g81
I4
ssg82
Nsg75
(lp4421
sbasbasbasbag68
(g84
g70
NtRp4422
(dp4423
g73
(dp4424
sg82
g3066
sg75
(lp4425
g68
(g89
g70
NtRp4426
(dp4427
g73
(dp4428
g93
g94
ssg82
g4422
sg75
(lp4429
S'session_cookie_expires'
p4430
asbag68
(g89
g70
NtRp4431
(dp4432
g73
(dp4433
g100
g101
ssg82
g4422
sg75
(lp4434
S':'
asbag68
(g89
g70
NtRp4435
(dp4436
g73
(dp4437
sg82
g4422
sg75
(lp4438
g68
(g69
g70
NtRp4439
(dp4440
g73
(dp4441
g81
I5
ssg82
g4435
sg75
(lp4442
S'None'
p4443
asbasbasbag68
(g84
g70
NtRp4444
(dp4445
g73
(dp4446
sg82
g3066
sg75
(lp4447
g68
(g89
g70
NtRp4448
(dp4449
g73
(dp4450
g93
g94
ssg82
g4444
sg75
(lp4451
S'session_data_name'
p4452
asbag68
(g89
g70
NtRp4453
(dp4454
g73
(dp4455
g100
g101
ssg82
g4444
sg75
(lp4456
S':'
asbag68
(g89
g70
NtRp4457
(dp4458
g73
(dp4459
sg82
g4444
sg75
(lp4460
g68
(g69
g70
NtRp4461
(dp4462
g73
(dp4463
g81
I5
ssg82
g4457
sg75
(lp4464
S'session_data_shipra'
p4465
asbasbasbag68
(g84
g70
NtRp4466
(dp4467
g73
(dp4468
sg82
g3066
sg75
(lp4469
g68
(g89
g70
NtRp4470
(dp4471
g73
(dp4472
g93
g94
ssg82
g4466
sg75
(lp4473
S'session_filename'
p4474
asbag68
(g89
g70
NtRp4475
(dp4476
g73
(dp4477
g100
g101
ssg82
g4466
sg75
(lp4478
S':'
asbag68
(g89
g70
NtRp4479
(dp4480
g73
(dp4481
sg82
g4466
sg75
(lp4482
g68
(g69
g70
NtRp4483
(dp4484
g73
(dp4485
g81
I5
ssg82
g4479
sg75
(lp4486
S'/home/shipra/Desktop/Semester 1.2/ITWS-2/web2py/applications/shipra/sessions/127.0.0.1-d4f69205-a302-4a76-8b1d-9b7028341411'
p4487
asbasbasbag68
(g84
g70
NtRp4488
(dp4489
g73
(dp4490
sg82
g3066
sg75
(lp4491
g68
(g89
g70
NtRp4492
(dp4493
g73
(dp4494
g93
g94
ssg82
g4488
sg75
(lp4495
S'session_id'
p4496
asbag68
(g89
g70
NtRp4497
(dp4498
g73
(dp4499
g100
g101
ssg82
g4488
sg75
(lp4500
S':'
asbag68
(g89
g70
NtRp4501
(dp4502
g73
(dp4503
sg82
g4488
sg75
(lp4504
g68
(g69
g70
NtRp4505
(dp4506
g73
(dp4507
g81
I5
ssg82
g4501
sg75
(lp4508
g3136
asbasbasbag68
(g84
g70
NtRp4509
(dp4510
g73
(dp4511
sg82
g3066
sg75
(lp4512
g68
(g89
g70
NtRp4513
(dp4514
g73
(dp4515
g93
g94
ssg82
g4509
sg75
(lp4516
S'session_id_name'
p4517
asbag68
(g89
g70
NtRp4518
(dp4519
g73
(dp4520
g100
g101
ssg82
g4509
sg75
(lp4521
S':'
asbag68
(g89
g70
NtRp4522
(dp4523
g73
(dp4524
sg82
g4509
sg75
(lp4525
g68
(g69
g70
NtRp4526
(dp4527
g73
(dp4528
g81
I5
ssg82
g4522
sg75
(lp4529
g3123
asbasbasbag68
(g84
g70
NtRp4530
(dp4531
g73
(dp4532
sg82
g3066
sg75
(lp4533
g68
(g89
g70
NtRp4534
(dp4535
g73
(dp4536
g93
g94
ssg82
g4530
sg75
(lp4537
S'session_new'
p4538
asbag68
(g89
g70
NtRp4539
(dp4540
g73
(dp4541
g100
g101
ssg82
g4530
sg75
(lp4542
S':'
asbag68
(g89
g70
NtRp4543
(dp4544
g73
(dp4545
sg82
g4530
sg75
(lp4546
g68
(g69
g70
NtRp4547
(dp4548
g73
(dp4549
g81
I5
ssg82
g4543
sg75
(lp4550
g1585
asbasbasbag68
(g84
g70
NtRp4551
(dp4552
g73
(dp4553
sg82
g3066
sg75
(lp4554
g68
(g89
g70
NtRp4555
(dp4556
g73
(dp4557
g93
g94
ssg82
g4551
sg75
(lp4558
S'session_storage_type'
p4559
asbag68
(g89
g70
NtRp4560
(dp4561
g73
(dp4562
g100
g101
ssg82
g4551
sg75
(lp4563
S':'
asbag68
(g89
g70
NtRp4564
(dp4565
g73
(dp4566
sg82
g4551
sg75
(lp4567
g68
(g69
g70
NtRp4568
(dp4569
g73
(dp4570
g81
I5
ssg82
g4564
sg75
(lp4571
g2995
asbasbasbag68
(g84
g70
NtRp4572
(dp4573
g73
(dp4574
sg82
g3066
sg75
(lp4575
g68
(g89
g70
NtRp4576
(dp4577
g73
(dp4578
g93
g94
ssg82
g4572
sg75
(lp4579
S'status'
p4580
asbag68
(g89
g70
NtRp4581
(dp4582
g73
(dp4583
g100
g101
ssg82
g4572
sg75
(lp4584
S':'
asbag68
(g89
g70
NtRp4585
(dp4586
g73
(dp4587
sg82
g4572
sg75
(lp4588
g68
(g69
g70
NtRp4589
(dp4590
g73
(dp4591
g81
I5
ssg82
g4585
sg75
(lp4592
S'200'
p4593
asbasbasbag68
(g84
g70
NtRp4594
(dp4595
g73
(dp4596
sg82
g3066
sg75
(lp4597
g68
(g89
g70
NtRp4598
(dp4599
g73
(dp4600
g93
g94
ssg82
g4594
sg75
(lp4601
S'subtitle'
p4602
asbag68
(g89
g70
NtRp4603
(dp4604
g73
(dp4605
g100
g101
ssg82
g4594
sg75
(lp4606
S':'
asbag68
(g89
g70
NtRp4607
(dp4608
g73
(dp4609
sg82
g4594
sg75
(lp4610
g68
(g69
g70
NtRp4611
(dp4612
g73
(dp4613
g81
I5
ssg82
g4607
sg75
(lp4614
g3601
(S's\r\x00\x00\x00customize me!'
tRp4615
asbasbasbag68
(g84
g70
NtRp4616
(dp4617
g73
(dp4618
sg82
g3066
sg75
(lp4619
g68
(g89
g70
NtRp4620
(dp4621
g73
(dp4622
g93
g94
ssg82
g4616
sg75
(lp4623
S'title'
p4624
asbag68
(g89
g70
NtRp4625
(dp4626
g73
(dp4627
g100
g101
ssg82
g4616
sg75
(lp4628
S':'
asbag68
(g89
g70
NtRp4629
(dp4630
g73
(dp4631
sg82
g4616
sg75
(lp4632
g68
(g69
g70
NtRp4633
(dp4634
g73
(dp4635
g81
I5
ssg82
g4629
sg75
(lp4636
S'Shipra'
p4637
asbasbasbag68
(g84
g70
NtRp4638
(dp4639
g73
(dp4640
sg82
g3066
sg75
(lp4641
g68
(g89
g70
NtRp4642
(dp4643
g73
(dp4644
g93
g94
ssg82
g4638
sg75
(lp4645
S'view'
p4646
asbag68
(g89
g70
NtRp4647
(dp4648
g73
(dp4649
g100
g101
ssg82
g4638
sg75
(lp4650
S':'
asbag68
(g89
g70
NtRp4651
(dp4652
g73
(dp4653
sg82
g4638
sg75
(lp4654
g68
(g69
g70
NtRp4655
(dp4656
g73
(dp4657
g81
I5
ssg82
g4651
sg75
(lp4658
S'default/user.html'
p4659
asbasbasbasbasbsS'locals'
p4660
(dp4661
g4
S"'/home/shipra/Desktop/Semester 1.2/ITWS-2/web2py/applications/shipra/controllers/default.py'"
p4662
sg6
S"'# -*- coding: utf-8 -*-\\n# this file is released ...m=crud())\\n\\nresponse._vars=response._caller(user)\\n'"
p4663
sssS'traceback'
p4664
S'Traceback (most recent call last):\n  File "/home/shipra/Desktop/Semester 1.2/ITWS-2/web2py/gluon/restricted.py", line 211, in restricted\n    ccode = compile2(code, layer)\n  File "/home/shipra/Desktop/Semester 1.2/ITWS-2/web2py/gluon/restricted.py", line 194, in compile2\n    return compile(code.rstrip().replace(\'\\r\\n\', \'\\n\') + \'\\n\', layer, \'exec\')\n  File "/home/shipra/Desktop/Semester 1.2/ITWS-2/web2py/applications/shipra/controllers/default.py", line 73\n    def print():\n            ^\nSyntaxError: invalid syntax\n'
p4665
s.