(dp1
S'output'
p2
S"<type 'exceptions.SyntaxError'> invalid syntax (default.py, line 74)"
p3
sS'layer'
p4
S'/home/shipra/Desktop/Semester 1.2/ITWS-2/web2py/applications/shipra/controllers/default.py'
p5
sS'code'
p6
S'# -*- coding: utf-8 -*-\n# this file is released under public domain and you can use without limitations\n\n#########################################################################\n## This is a samples controller\n## - index is the default action of any application\n## - user is required for authentication and authorization\n## - download is for downloading files uploaded in the db (does streaming)\n## - call exposes all registered services (none by default)\n#########################################################################\n\n@auth.requires_login()\ndef index():\n    """\n    example action using the internationalization operator T and flash\n    rendered by views/default/index.html or views/generic.html\n\n    if you need a simple wiki simple replace the two lines below with:\n    return auth.wiki()\n    """\n    c=auth.user_id\n    response.flash = T("Welcome to web2py!")\n    return locals()\n    #return dict(message=T(\'Hello World\'))\n@auth.requires_login()\ndef Personal():\n\tc=auth.user_id\n\tdb.Personal.pid.default=c\n\tdb.Personal.pid.readable=True\n\tdb.Personal.pid.writable=False\n\tform=SQLFORM(db.Personal)\n\tif form.process().accepted:\n\t\tresponse.flash=\'form accepted\'\n\telif form.errors:\n\t\tresponse.flash = \'form has errors\'\n\treturn dict(form=form)\ndef Education():\n\tc=auth.user_id\n\tdb.Education.eid.default=c\n\tdb.Education.eid.readable=True\n\tdb.Education.eid.writable=False\n\tform=SQLFORM(db.Education)\n\tif form.process().accepted:\n\t\tresponse.flash=\'form accepted\'\n\telif form.errors:\n\t\tresponse.flash=\'form has errors\'\n\treturn dict(form=form)\ndef Merit():\t\n\tc=auth.user_id\n\tdb.Merit.mid.default=c\n\tdb.Merit.mid.readable=True\n\tdb.Merit.mid.writable=False\n\tform=SQLFORM(db.Merit)\n\tif form.process().accepted:\n\t\tresponse.flash=\'form accepted\'\n\telif form.errors:\n\t\tresponse.flash=\'form has errors\'\n\treturn dict(form=form)\n\ndef Experience():\n\tc=auth.user_id\n\tdb.Experience.exid.default=c\n\tdb.Experience.exid.readable=True\n\tdb.Experience.exid.writable=False\n\tform=SQLFORM(db.Experience)\n\tif form.process().accepted:\n\t\tresponse.flash=\'form accepted\'\n\telif form.errors:\n\t\tresponse.flash=\'form has errors\'\n\treturn dict(form=form)\ndef create():\n\treturn locals()\n\ndef print():\n\tc=auth.user_id\n\tpers=db.select(db.Personal.pid==c).select(db.Personal.ALL)\n\tedu=db.select(db.Education.eid==c).select(db.Education.ALL)\n\tmer=db.select(db.Merit.mid==c).select(db.Merit.ALL)\n\texp=db.select(db.Experience.exid==c).select(db.Experience.ALL)\n\treturn locals()\n\n\ndef user():\n    """\n    exposes:\n    http://..../[app]/default/user/login\n    http://..../[app]/default/user/logout\n    http://..../[app]/default/user/register\n    http://..../[app]/default/user/profile\n    http://..../[app]/default/user/retrieve_password\n    http://..../[app]/default/user/change_password\n    use @auth.requires_login()\n        @auth.requires_membership(\'group name\')\n        @auth.requires_permission(\'read\',\'table name\',record_id)\n    to decorate functions that need access control\n    """\n    return dict(form=auth())\n\n\ndef download():\n    """\n    allows downloading of uploaded files\n    http://..../[app]/default/download/[filename]\n    """\n    return response.download(request, db)\n\n\ndef call():\n    """\n    exposes services. for example:\n    http://..../[app]/default/call/jsonrpc\n    decorate with @services.jsonrpc the functions to expose\n    supports xml, json, xmlrpc, jsonrpc, amfrpc, rss, csv\n    """\n    return service()\n\n\n@auth.requires_signature()\ndef data():\n    """\n    http://..../[app]/default/data/tables\n    http://..../[app]/default/data/create/[table]\n    http://..../[app]/default/data/read/[table]/[id]\n    http://..../[app]/default/data/update/[table]/[id]\n    http://..../[app]/default/data/delete/[table]/[id]\n    http://..../[app]/default/data/select/[table]\n    http://..../[app]/default/data/search/[table]\n    but URLs must be signed, i.e. linked with\n      A(\'table\',_href=URL(\'data/tables\',user_signature=True))\n    or with the signed load operator\n      LOAD(\'default\',\'data.load\',args=\'tables\',ajax=True,user_signature=True)\n    """\n    return dict(form=crud())\n\nresponse._vars=response._caller(user)\n'
p7
sS'snapshot'
p8
(dp9
S'exception'
p10
(dp11
S'__getslice__'
p12
S"<method-wrapper '__getslice__' of exceptions.SyntaxError object>"
p13
sS'text'
p14
S"'def print():\\n'"
p15
sS'__str__'
p16
S"<method-wrapper '__str__' of exceptions.SyntaxError object>"
p17
sS'__reduce__'
p18
S'<built-in method __reduce__ of exceptions.SyntaxError object>'
p19
sS'__dict__'
p20
S'{}'
p21
sS'__sizeof__'
p22
S'<built-in method __sizeof__ of exceptions.SyntaxError object>'
p23
sS'__init__'
p24
S"<method-wrapper '__init__' of exceptions.SyntaxError object>"
p25
sS'__setattr__'
p26
S"<method-wrapper '__setattr__' of exceptions.SyntaxError object>"
p27
sS'__reduce_ex__'
p28
S'<built-in method __reduce_ex__ of exceptions.SyntaxError object>'
p29
sS'__new__'
p30
S'<built-in method __new__ of type object>'
p31
sS'__format__'
p32
S'<built-in method __format__ of exceptions.SyntaxError object>'
p33
sS'__class__'
p34
S"<type 'exceptions.SyntaxError'>"
p35
sS'filename'
p36
S"'/home/shipra/Desktop/Semester 1.2/ITWS-2/web2py/applications/shipra/controllers/default.py'"
p37
sS'lineno'
p38
S'74'
p39
sS'msg'
p40
S"'invalid syntax'"
p41
sS'__doc__'
p42
S"'Invalid syntax.'"
p43
sS'__getitem__'
p44
S"<method-wrapper '__getitem__' of exceptions.SyntaxError object>"
p45
sS'__setstate__'
p46
S'<built-in method __setstate__ of exceptions.SyntaxError object>'
p47
sS'__getattribute__'
p48
S"<method-wrapper '__getattribute__' of exceptions.SyntaxError object>"
p49
sS'print_file_and_line'
p50
S'None'
p51
sS'args'
p52
S"('invalid syntax', ('/home/shipra/Desktop/Semester 1.2/ITWS-2/web2py/applications/shipra/controllers/default.py', 74, 9, 'def print():\\n'))"
p53
sS'__subclasshook__'
p54
S'<built-in method __subclasshook__ of type object>'
p55
sS'offset'
p56
S'9'
sS'__unicode__'
p57
S'<built-in method __unicode__ of exceptions.SyntaxError object>'
p58
sS'__delattr__'
p59
S"<method-wrapper '__delattr__' of exceptions.SyntaxError object>"
p60
sS'__repr__'
p61
S"<method-wrapper '__repr__' of exceptions.SyntaxError object>"
p62
sS'__hash__'
p63
S"<method-wrapper '__hash__' of exceptions.SyntaxError object>"
p64
ssS'evalue'
p65
S'invalid syntax (default.py, line 74)'
p66
sS'request'
p67
ccopy_reg
_reconstructor
p68
(cgluon.html
BEAUTIFY
p69
c__builtin__
object
p70
NtRp71
(dp72
S'attributes'
p73
(dp74
sS'components'
p75
(lp76
g68
(cgluon.html
TABLE
p77
g70
NtRp78
(dp79
g73
(dp80
S'level'
p81
I5
ssS'parent'
p82
Nsg75
(lp83
g68
(cgluon.html
TR
p84
g70
NtRp85
(dp86
g73
(dp87
sg82
g78
sg75
(lp88
g68
(cgluon.html
TD
p89
g70
NtRp90
(dp91
g73
(dp92
S'_style'
p93
S'font-weight:bold;vertical-align:top'
p94
ssg82
g85
sg75
(lp95
S'ajax'
p96
asbag68
(g89
g70
NtRp97
(dp98
g73
(dp99
S'_valign'
p100
S'top'
p101
ssg82
g85
sg75
(lp102
S':'
asbag68
(g89
g70
NtRp103
(dp104
g73
(dp105
sg82
g85
sg75
(lp106
g68
(g69
g70
NtRp107
(dp108
g73
(dp109
g81
I5
ssg82
g103
sg75
(lp110
S'False'
p111
asbasbasbag68
(g84
g70
NtRp112
(dp113
g73
(dp114
sg82
g78
sg75
(lp115
g68
(g89
g70
NtRp116
(dp117
g73
(dp118
g93
g94
ssg82
g112
sg75
(lp119
S'application'
p120
asbag68
(g89
g70
NtRp121
(dp122
g73
(dp123
g100
g101
ssg82
g112
sg75
(lp124
S':'
asbag68
(g89
g70
NtRp125
(dp126
g73
(dp127
sg82
g112
sg75
(lp128
g68
(g69
g70
NtRp129
(dp130
g73
(dp131
g81
I5
ssg82
g125
sg75
(lp132
S'shipra'
p133
asbasbasbag68
(g84
g70
NtRp134
(dp135
g73
(dp136
sg82
g78
sg75
(lp137
g68
(g89
g70
NtRp138
(dp139
g73
(dp140
g93
g94
ssg82
g134
sg75
(lp141
g52
asbag68
(g89
g70
NtRp142
(dp143
g73
(dp144
g100
g101
ssg82
g134
sg75
(lp145
S':'
asbag68
(g89
g70
NtRp146
(dp147
g73
(dp148
sg82
g134
sg75
(lp149
g68
(g69
g70
NtRp150
(dp151
g73
(dp152
g81
I5
ssg82
g146
sg75
(lp153
g68
(g77
g70
NtRp154
(dp155
g73
(dp156
g81
I4
ssg82
Nsg75
(lp157
g68
(g84
g70
NtRp158
(dp159
g73
(dp160
sg82
g154
sg75
(lp161
g68
(g89
g70
NtRp162
(dp163
g73
(dp164
sg82
g158
sg75
(lp165
g68
(g69
g70
NtRp166
(dp167
g73
(dp168
g81
I4
ssg82
g162
sg75
(lp169
S'login'
p170
asbasbasbasbasbasbasbag68
(g84
g70
NtRp171
(dp172
g73
(dp173
sg82
g78
sg75
(lp174
g68
(g89
g70
NtRp175
(dp176
g73
(dp177
g93
g94
ssg82
g171
sg75
(lp178
S'body'
p179
asbag68
(g89
g70
NtRp180
(dp181
g73
(dp182
g100
g101
ssg82
g171
sg75
(lp183
S':'
asbag68
(g89
g70
NtRp184
(dp185
g73
(dp186
sg82
g171
sg75
(lp187
g68
(g69
g70
NtRp188
(dp189
g73
(dp190
g81
I5
ssg82
g184
sg75
(lp191
S'<cStringIO.StringO object at 0x7f81180e5e30>'
p192
asbasbasbag68
(g84
g70
NtRp193
(dp194
g73
(dp195
sg82
g78
sg75
(lp196
g68
(g89
g70
NtRp197
(dp198
g73
(dp199
g93
g94
ssg82
g193
sg75
(lp200
S'cid'
p201
asbag68
(g89
g70
NtRp202
(dp203
g73
(dp204
g100
g101
ssg82
g193
sg75
(lp205
S':'
asbag68
(g89
g70
NtRp206
(dp207
g73
(dp208
sg82
g193
sg75
(lp209
g68
(g69
g70
NtRp210
(dp211
g73
(dp212
g81
I5
ssg82
g206
sg75
(lp213
S'None'
p214
asbasbasbag68
(g84
g70
NtRp215
(dp216
g73
(dp217
sg82
g78
sg75
(lp218
g68
(g89
g70
NtRp219
(dp220
g73
(dp221
g93
g94
ssg82
g215
sg75
(lp222
S'client'
p223
asbag68
(g89
g70
NtRp224
(dp225
g73
(dp226
g100
g101
ssg82
g215
sg75
(lp227
S':'
asbag68
(g89
g70
NtRp228
(dp229
g73
(dp230
sg82
g215
sg75
(lp231
g68
(g69
g70
NtRp232
(dp233
g73
(dp234
g81
I5
ssg82
g228
sg75
(lp235
S'127.0.0.1'
p236
asbasbasbag68
(g84
g70
NtRp237
(dp238
g73
(dp239
sg82
g78
sg75
(lp240
g68
(g89
g70
NtRp241
(dp242
g73
(dp243
g93
g94
ssg82
g237
sg75
(lp244
S'controller'
p245
asbag68
(g89
g70
NtRp246
(dp247
g73
(dp248
g100
g101
ssg82
g237
sg75
(lp249
S':'
asbag68
(g89
g70
NtRp250
(dp251
g73
(dp252
sg82
g237
sg75
(lp253
g68
(g69
g70
NtRp254
(dp255
g73
(dp256
g81
I5
ssg82
g250
sg75
(lp257
S'default'
p258
asbasbasbag68
(g84
g70
NtRp259
(dp260
g73
(dp261
sg82
g78
sg75
(lp262
g68
(g89
g70
NtRp263
(dp264
g73
(dp265
g93
g94
ssg82
g259
sg75
(lp266
S'cookies'
p267
asbag68
(g89
g70
NtRp268
(dp269
g73
(dp270
g100
g101
ssg82
g259
sg75
(lp271
S':'
asbag68
(g89
g70
NtRp272
(dp273
g73
(dp274
sg82
g259
sg75
(lp275
g68
(g69
g70
NtRp276
(dp277
g73
(dp278
g81
I5
ssg82
g272
sg75
(lp279
g68
(g77
g70
NtRp280
(dp281
g73
(dp282
g81
I4
ssg82
Nsg75
(lp283
g68
(g84
g70
NtRp284
(dp285
g73
(dp286
sg82
g280
sg75
(lp287
g68
(g89
g70
NtRp288
(dp289
g73
(dp290
g93
g94
ssg82
g284
sg75
(lp291
S'mp_2093ad9ff9c5428a2228386de2f2b0e4_mixpanel'
p292
asbag68
(g89
g70
NtRp293
(dp294
g73
(dp295
g100
g101
ssg82
g284
sg75
(lp296
S':'
asbag68
(g89
g70
NtRp297
(dp298
g73
(dp299
sg82
g284
sg75
(lp300
g68
(g69
g70
NtRp301
(dp302
g73
(dp303
g81
I4
ssg82
g297
sg75
(lp304
S'%7B%22distinct_id%22%3A%20%2262ffc2d0-7b9f-0130-efb0-22000a1cbb2a%22%2C%22is_registered_user%22%3A%20false%2C%22%24initial_referrer%22%3A%20%22%24direct%22%2C%22%24initial_referring_domain%22%3A%20%22%24direct%22%7D'
p305
ag68
(g77
g70
NtRp306
(dp307
g73
(dp308
g81
I3
ssg82
Nsg75
(lp309
g68
(g84
g70
NtRp310
(dp311
g73
(dp312
sg82
g306
sg75
(lp313
g68
(g89
g70
NtRp314
(dp315
g73
(dp316
g93
g94
ssg82
g310
sg75
(lp317
S'comment'
p318
asbag68
(g89
g70
NtRp319
(dp320
g73
(dp321
g100
g101
ssg82
g310
sg75
(lp322
S':'
asbag68
(g89
g70
NtRp323
(dp324
g73
(dp325
sg82
g310
sg75
(lp326
g68
(g69
g70
NtRp327
(dp328
g73
(dp329
g81
I3
ssg82
g323
sg75
(lp330
S''
asbasbasbag68
(g84
g70
NtRp331
(dp332
g73
(dp333
sg82
g306
sg75
(lp334
g68
(g89
g70
NtRp335
(dp336
g73
(dp337
g93
g94
ssg82
g331
sg75
(lp338
S'domain'
p339
asbag68
(g89
g70
NtRp340
(dp341
g73
(dp342
g100
g101
ssg82
g331
sg75
(lp343
S':'
asbag68
(g89
g70
NtRp344
(dp345
g73
(dp346
sg82
g331
sg75
(lp347
g68
(g69
g70
NtRp348
(dp349
g73
(dp350
g81
I3
ssg82
g344
sg75
(lp351
S''
asbasbasbag68
(g84
g70
NtRp352
(dp353
g73
(dp354
sg82
g306
sg75
(lp355
g68
(g89
g70
NtRp356
(dp357
g73
(dp358
g93
g94
ssg82
g352
sg75
(lp359
S'expires'
p360
asbag68
(g89
g70
NtRp361
(dp362
g73
(dp363
g100
g101
ssg82
g352
sg75
(lp364
S':'
asbag68
(g89
g70
NtRp365
(dp366
g73
(dp367
sg82
g352
sg75
(lp368
g68
(g69
g70
NtRp369
(dp370
g73
(dp371
g81
I3
ssg82
g365
sg75
(lp372
S''
asbasbasbag68
(g84
g70
NtRp373
(dp374
g73
(dp375
sg82
g306
sg75
(lp376
g68
(g89
g70
NtRp377
(dp378
g73
(dp379
g93
g94
ssg82
g373
sg75
(lp380
S'httponly'
p381
asbag68
(g89
g70
NtRp382
(dp383
g73
(dp384
g100
g101
ssg82
g373
sg75
(lp385
S':'
asbag68
(g89
g70
NtRp386
(dp387
g73
(dp388
sg82
g373
sg75
(lp389
g68
(g69
g70
NtRp390
(dp391
g73
(dp392
g81
I3
ssg82
g386
sg75
(lp393
S''
asbasbasbag68
(g84
g70
NtRp394
(dp395
g73
(dp396
sg82
g306
sg75
(lp397
g68
(g89
g70
NtRp398
(dp399
g73
(dp400
g93
g94
ssg82
g394
sg75
(lp401
S'max-age'
p402
asbag68
(g89
g70
NtRp403
(dp404
g73
(dp405
g100
g101
ssg82
g394
sg75
(lp406
S':'
asbag68
(g89
g70
NtRp407
(dp408
g73
(dp409
sg82
g394
sg75
(lp410
g68
(g69
g70
NtRp411
(dp412
g73
(dp413
g81
I3
ssg82
g407
sg75
(lp414
S''
asbasbasbag68
(g84
g70
NtRp415
(dp416
g73
(dp417
sg82
g306
sg75
(lp418
g68
(g89
g70
NtRp419
(dp420
g73
(dp421
g93
g94
ssg82
g415
sg75
(lp422
S'path'
p423
asbag68
(g89
g70
NtRp424
(dp425
g73
(dp426
g100
g101
ssg82
g415
sg75
(lp427
S':'
asbag68
(g89
g70
NtRp428
(dp429
g73
(dp430
sg82
g415
sg75
(lp431
g68
(g69
g70
NtRp432
(dp433
g73
(dp434
g81
I3
ssg82
g428
sg75
(lp435
S''
asbasbasbag68
(g84
g70
NtRp436
(dp437
g73
(dp438
sg82
g306
sg75
(lp439
g68
(g89
g70
NtRp440
(dp441
g73
(dp442
g93
g94
ssg82
g436
sg75
(lp443
S'secure'
p444
asbag68
(g89
g70
NtRp445
(dp446
g73
(dp447
g100
g101
ssg82
g436
sg75
(lp448
S':'
asbag68
(g89
g70
NtRp449
(dp450
g73
(dp451
sg82
g436
sg75
(lp452
g68
(g69
g70
NtRp453
(dp454
g73
(dp455
g81
I3
ssg82
g449
sg75
(lp456
S''
asbasbasbag68
(g84
g70
NtRp457
(dp458
g73
(dp459
sg82
g306
sg75
(lp460
g68
(g89
g70
NtRp461
(dp462
g73
(dp463
g93
g94
ssg82
g457
sg75
(lp464
S'version'
p465
asbag68
(g89
g70
NtRp466
(dp467
g73
(dp468
g100
g101
ssg82
g457
sg75
(lp469
S':'
asbag68
(g89
g70
NtRp470
(dp471
g73
(dp472
sg82
g457
sg75
(lp473
g68
(g69
g70
NtRp474
(dp475
g73
(dp476
g81
I3
ssg82
g470
sg75
(lp477
S''
asbasbasbasbasbasbasbag68
(g84
g70
NtRp478
(dp479
g73
(dp480
sg82
g280
sg75
(lp481
g68
(g89
g70
NtRp482
(dp483
g73
(dp484
g93
g94
ssg82
g478
sg75
(lp485
S'session_id_admin'
p486
asbag68
(g89
g70
NtRp487
(dp488
g73
(dp489
g100
g101
ssg82
g478
sg75
(lp490
S':'
asbag68
(g89
g70
NtRp491
(dp492
g73
(dp493
sg82
g478
sg75
(lp494
g68
(g69
g70
NtRp495
(dp496
g73
(dp497
g81
I4
ssg82
g491
sg75
(lp498
S'127.0.0.1-5d23d040-bd0d-400d-ad18-8db76262b069'
p499
ag68
(g77
g70
NtRp500
(dp501
g73
(dp502
g81
I3
ssg82
Nsg75
(lp503
g68
(g84
g70
NtRp504
(dp505
g73
(dp506
sg82
g500
sg75
(lp507
g68
(g89
g70
NtRp508
(dp509
g73
(dp510
g93
g94
ssg82
g504
sg75
(lp511
g318
asbag68
(g89
g70
NtRp512
(dp513
g73
(dp514
g100
g101
ssg82
g504
sg75
(lp515
S':'
asbag68
(g89
g70
NtRp516
(dp517
g73
(dp518
sg82
g504
sg75
(lp519
g68
(g69
g70
NtRp520
(dp521
g73
(dp522
g81
I3
ssg82
g516
sg75
(lp523
S''
asbasbasbag68
(g84
g70
NtRp524
(dp525
g73
(dp526
sg82
g500
sg75
(lp527
g68
(g89
g70
NtRp528
(dp529
g73
(dp530
g93
g94
ssg82
g524
sg75
(lp531
g339
asbag68
(g89
g70
NtRp532
(dp533
g73
(dp534
g100
g101
ssg82
g524
sg75
(lp535
S':'
asbag68
(g89
g70
NtRp536
(dp537
g73
(dp538
sg82
g524
sg75
(lp539
g68
(g69
g70
NtRp540
(dp541
g73
(dp542
g81
I3
ssg82
g536
sg75
(lp543
S''
asbasbasbag68
(g84
g70
NtRp544
(dp545
g73
(dp546
sg82
g500
sg75
(lp547
g68
(g89
g70
NtRp548
(dp549
g73
(dp550
g93
g94
ssg82
g544
sg75
(lp551
g360
asbag68
(g89
g70
NtRp552
(dp553
g73
(dp554
g100
g101
ssg82
g544
sg75
(lp555
S':'
asbag68
(g89
g70
NtRp556
(dp557
g73
(dp558
sg82
g544
sg75
(lp559
g68
(g69
g70
NtRp560
(dp561
g73
(dp562
g81
I3
ssg82
g556
sg75
(lp563
S''
asbasbasbag68
(g84
g70
NtRp564
(dp565
g73
(dp566
sg82
g500
sg75
(lp567
g68
(g89
g70
NtRp568
(dp569
g73
(dp570
g93
g94
ssg82
g564
sg75
(lp571
g381
asbag68
(g89
g70
NtRp572
(dp573
g73
(dp574
g100
g101
ssg82
g564
sg75
(lp575
S':'
asbag68
(g89
g70
NtRp576
(dp577
g73
(dp578
sg82
g564
sg75
(lp579
g68
(g69
g70
NtRp580
(dp581
g73
(dp582
g81
I3
ssg82
g576
sg75
(lp583
S''
asbasbasbag68
(g84
g70
NtRp584
(dp585
g73
(dp586
sg82
g500
sg75
(lp587
g68
(g89
g70
NtRp588
(dp589
g73
(dp590
g93
g94
ssg82
g584
sg75
(lp591
g402
asbag68
(g89
g70
NtRp592
(dp593
g73
(dp594
g100
g101
ssg82
g584
sg75
(lp595
S':'
asbag68
(g89
g70
NtRp596
(dp597
g73
(dp598
sg82
g584
sg75
(lp599
g68
(g69
g70
NtRp600
(dp601
g73
(dp602
g81
I3
ssg82
g596
sg75
(lp603
S''
asbasbasbag68
(g84
g70
NtRp604
(dp605
g73
(dp606
sg82
g500
sg75
(lp607
g68
(g89
g70
NtRp608
(dp609
g73
(dp610
g93
g94
ssg82
g604
sg75
(lp611
g423
asbag68
(g89
g70
NtRp612
(dp613
g73
(dp614
g100
g101
ssg82
g604
sg75
(lp615
S':'
asbag68
(g89
g70
NtRp616
(dp617
g73
(dp618
sg82
g604
sg75
(lp619
g68
(g69
g70
NtRp620
(dp621
g73
(dp622
g81
I3
ssg82
g616
sg75
(lp623
S''
asbasbasbag68
(g84
g70
NtRp624
(dp625
g73
(dp626
sg82
g500
sg75
(lp627
g68
(g89
g70
NtRp628
(dp629
g73
(dp630
g93
g94
ssg82
g624
sg75
(lp631
g444
asbag68
(g89
g70
NtRp632
(dp633
g73
(dp634
g100
g101
ssg82
g624
sg75
(lp635
S':'
asbag68
(g89
g70
NtRp636
(dp637
g73
(dp638
sg82
g624
sg75
(lp639
g68
(g69
g70
NtRp640
(dp641
g73
(dp642
g81
I3
ssg82
g636
sg75
(lp643
S''
asbasbasbag68
(g84
g70
NtRp644
(dp645
g73
(dp646
sg82
g500
sg75
(lp647
g68
(g89
g70
NtRp648
(dp649
g73
(dp650
g93
g94
ssg82
g644
sg75
(lp651
g465
asbag68
(g89
g70
NtRp652
(dp653
g73
(dp654
g100
g101
ssg82
g644
sg75
(lp655
S':'
asbag68
(g89
g70
NtRp656
(dp657
g73
(dp658
sg82
g644
sg75
(lp659
g68
(g69
g70
NtRp660
(dp661
g73
(dp662
g81
I3
ssg82
g656
sg75
(lp663
S''
asbasbasbasbasbasbasbag68
(g84
g70
NtRp664
(dp665
g73
(dp666
sg82
g280
sg75
(lp667
g68
(g89
g70
NtRp668
(dp669
g73
(dp670
g93
g94
ssg82
g664
sg75
(lp671
S'session_id_welcome'
p672
asbag68
(g89
g70
NtRp673
(dp674
g73
(dp675
g100
g101
ssg82
g664
sg75
(lp676
S':'
asbag68
(g89
g70
NtRp677
(dp678
g73
(dp679
sg82
g664
sg75
(lp680
g68
(g69
g70
NtRp681
(dp682
g73
(dp683
g81
I4
ssg82
g677
sg75
(lp684
S'127.0.0.1-bac479ef-22ec-41f7-a43d-cc54391f583c'
p685
ag68
(g77
g70
NtRp686
(dp687
g73
(dp688
g81
I3
ssg82
Nsg75
(lp689
g68
(g84
g70
NtRp690
(dp691
g73
(dp692
sg82
g686
sg75
(lp693
g68
(g89
g70
NtRp694
(dp695
g73
(dp696
g93
g94
ssg82
g690
sg75
(lp697
g318
asbag68
(g89
g70
NtRp698
(dp699
g73
(dp700
g100
g101
ssg82
g690
sg75
(lp701
S':'
asbag68
(g89
g70
NtRp702
(dp703
g73
(dp704
sg82
g690
sg75
(lp705
g68
(g69
g70
NtRp706
(dp707
g73
(dp708
g81
I3
ssg82
g702
sg75
(lp709
S''
asbasbasbag68
(g84
g70
NtRp710
(dp711
g73
(dp712
sg82
g686
sg75
(lp713
g68
(g89
g70
NtRp714
(dp715
g73
(dp716
g93
g94
ssg82
g710
sg75
(lp717
g339
asbag68
(g89
g70
NtRp718
(dp719
g73
(dp720
g100
g101
ssg82
g710
sg75
(lp721
S':'
asbag68
(g89
g70
NtRp722
(dp723
g73
(dp724
sg82
g710
sg75
(lp725
g68
(g69
g70
NtRp726
(dp727
g73
(dp728
g81
I3
ssg82
g722
sg75
(lp729
S''
asbasbasbag68
(g84
g70
NtRp730
(dp731
g73
(dp732
sg82
g686
sg75
(lp733
g68
(g89
g70
NtRp734
(dp735
g73
(dp736
g93
g94
ssg82
g730
sg75
(lp737
g360
asbag68
(g89
g70
NtRp738
(dp739
g73
(dp740
g100
g101
ssg82
g730
sg75
(lp741
S':'
asbag68
(g89
g70
NtRp742
(dp743
g73
(dp744
sg82
g730
sg75
(lp745
g68
(g69
g70
NtRp746
(dp747
g73
(dp748
g81
I3
ssg82
g742
sg75
(lp749
S''
asbasbasbag68
(g84
g70
NtRp750
(dp751
g73
(dp752
sg82
g686
sg75
(lp753
g68
(g89
g70
NtRp754
(dp755
g73
(dp756
g93
g94
ssg82
g750
sg75
(lp757
g381
asbag68
(g89
g70
NtRp758
(dp759
g73
(dp760
g100
g101
ssg82
g750
sg75
(lp761
S':'
asbag68
(g89
g70
NtRp762
(dp763
g73
(dp764
sg82
g750
sg75
(lp765
g68
(g69
g70
NtRp766
(dp767
g73
(dp768
g81
I3
ssg82
g762
sg75
(lp769
S''
asbasbasbag68
(g84
g70
NtRp770
(dp771
g73
(dp772
sg82
g686
sg75
(lp773
g68
(g89
g70
NtRp774
(dp775
g73
(dp776
g93
g94
ssg82
g770
sg75
(lp777
g402
asbag68
(g89
g70
NtRp778
(dp779
g73
(dp780
g100
g101
ssg82
g770
sg75
(lp781
S':'
asbag68
(g89
g70
NtRp782
(dp783
g73
(dp784
sg82
g770
sg75
(lp785
g68
(g69
g70
NtRp786
(dp787
g73
(dp788
g81
I3
ssg82
g782
sg75
(lp789
S''
asbasbasbag68
(g84
g70
NtRp790
(dp791
g73
(dp792
sg82
g686
sg75
(lp793
g68
(g89
g70
NtRp794
(dp795
g73
(dp796
g93
g94
ssg82
g790
sg75
(lp797
g423
asbag68
(g89
g70
NtRp798
(dp799
g73
(dp800
g100
g101
ssg82
g790
sg75
(lp801
S':'
asbag68
(g89
g70
NtRp802
(dp803
g73
(dp804
sg82
g790
sg75
(lp805
g68
(g69
g70
NtRp806
(dp807
g73
(dp808
g81
I3
ssg82
g802
sg75
(lp809
S''
asbasbasbag68
(g84
g70
NtRp810
(dp811
g73
(dp812
sg82
g686
sg75
(lp813
g68
(g89
g70
NtRp814
(dp815
g73
(dp816
g93
g94
ssg82
g810
sg75
(lp817
g444
asbag68
(g89
g70
NtRp818
(dp819
g73
(dp820
g100
g101
ssg82
g810
sg75
(lp821
S':'
asbag68
(g89
g70
NtRp822
(dp823
g73
(dp824
sg82
g810
sg75
(lp825
g68
(g69
g70
NtRp826
(dp827
g73
(dp828
g81
I3
ssg82
g822
sg75
(lp829
S''
asbasbasbag68
(g84
g70
NtRp830
(dp831
g73
(dp832
sg82
g686
sg75
(lp833
g68
(g89
g70
NtRp834
(dp835
g73
(dp836
g93
g94
ssg82
g830
sg75
(lp837
g465
asbag68
(g89
g70
NtRp838
(dp839
g73
(dp840
g100
g101
ssg82
g830
sg75
(lp841
S':'
asbag68
(g89
g70
NtRp842
(dp843
g73
(dp844
sg82
g830
sg75
(lp845
g68
(g69
g70
NtRp846
(dp847
g73
(dp848
g81
I3
ssg82
g842
sg75
(lp849
S''
asbasbasbasbasbasbasbasbasbasbasbag68
(g84
g70
NtRp850
(dp851
g73
(dp852
sg82
g78
sg75
(lp853
g68
(g89
g70
NtRp854
(dp855
g73
(dp856
g93
g94
ssg82
g850
sg75
(lp857
S'env'
p858
asbag68
(g89
g70
NtRp859
(dp860
g73
(dp861
g100
g101
ssg82
g850
sg75
(lp862
S':'
asbag68
(g89
g70
NtRp863
(dp864
g73
(dp865
sg82
g850
sg75
(lp866
g68
(g69
g70
NtRp867
(dp868
g73
(dp869
g81
I5
ssg82
g863
sg75
(lp870
g68
(g77
g70
NtRp871
(dp872
g73
(dp873
g81
I4
ssg82
Nsg75
(lp874
g68
(g84
g70
NtRp875
(dp876
g73
(dp877
sg82
g871
sg75
(lp878
g68
(g89
g70
NtRp879
(dp880
g73
(dp881
g93
g94
ssg82
g875
sg75
(lp882
S'app_folders'
p883
asbag68
(g89
g70
NtRp884
(dp885
g73
(dp886
g100
g101
ssg82
g875
sg75
(lp887
S':'
asbag68
(g89
g70
NtRp888
(dp889
g73
(dp890
sg82
g875
sg75
(lp891
g68
(g69
g70
NtRp892
(dp893
g73
(dp894
g81
I4
ssg82
g888
sg75
(lp895
S"set(['/home/shipra/Desktop/Semester 1.2/ITWS-2/web2py/applications/shipra/', '/home/shipra/Desktop/Semester 1.2/ITWS-2/web2py/applications/welcome/', '/home/shipra/Desktop/Semester 1.2/ITWS-2/web2py/applications/admin/'])"
p896
asbasbasbag68
(g84
g70
NtRp897
(dp898
g73
(dp899
sg82
g871
sg75
(lp900
g68
(g89
g70
NtRp901
(dp902
g73
(dp903
g93
g94
ssg82
g897
sg75
(lp904
S'applications_parent'
p905
asbag68
(g89
g70
NtRp906
(dp907
g73
(dp908
g100
g101
ssg82
g897
sg75
(lp909
S':'
asbag68
(g89
g70
NtRp910
(dp911
g73
(dp912
sg82
g897
sg75
(lp913
g68
(g69
g70
NtRp914
(dp915
g73
(dp916
g81
I4
ssg82
g910
sg75
(lp917
S'/home/shipra/Desktop/Semester 1.2/ITWS-2/web2py'
p918
asbasbasbag68
(g84
g70
NtRp919
(dp920
g73
(dp921
sg82
g871
sg75
(lp922
g68
(g89
g70
NtRp923
(dp924
g73
(dp925
g93
g94
ssg82
g919
sg75
(lp926
S'cmd_args'
p927
asbag68
(g89
g70
NtRp928
(dp929
g73
(dp930
g100
g101
ssg82
g919
sg75
(lp931
S':'
asbag68
(g89
g70
NtRp932
(dp933
g73
(dp934
sg82
g919
sg75
(lp935
g68
(g69
g70
NtRp936
(dp937
g73
(dp938
g81
I4
ssg82
g932
sg75
(lp939
g68
(g77
g70
NtRp940
(dp941
g73
(dp942
g81
I3
ssg82
Nsg75
(lp943
sbasbasbasbag68
(g84
g70
NtRp944
(dp945
g73
(dp946
sg82
g871
sg75
(lp947
g68
(g89
g70
NtRp948
(dp949
g73
(dp950
g93
g94
ssg82
g944
sg75
(lp951
S'cmd_options'
p952
asbag68
(g89
g70
NtRp953
(dp954
g73
(dp955
g100
g101
ssg82
g944
sg75
(lp956
S':'
asbag68
(g89
g70
NtRp957
(dp958
g73
(dp959
sg82
g944
sg75
(lp960
g68
(g69
g70
NtRp961
(dp962
g73
(dp963
g81
I4
ssg82
g957
sg75
(lp964
S"<Values at 0x2611248: {'verbose': False, 'ip': '127.0.0.1', 'with_scheduler': False, 'ips': ['192.168.122.1'], 'shutdown_timeout': 5, 'taskbar': False, 'port': 8000, 'maxthreads': None, 'softcron': False, 'server_name': 'shipra', 'bpython': False, 'nogui': False, 'pid_filename': 'httpserver.pid', 'extcron': False, 'runcron': False, 'run_system_tests': False, 'test': None, 'folder': '/home/shipra/Desktop/Semester 1.2/ITWS-2/web2py', 'config': '', 'minthreads': None, 'winservice': '', 'shell': None, 'run': '', 'log_filename': 'httpserver.log', 'debuglevel': 30, 'args': [''], 'socket_timeout': 5, 'ssl_ca_certificate': None, 'scheduler': None, 'profiler_filename': None, 'ssl_private_key': '', 'scheduler_groups': None, 'password': '<ask>', 'request_queue_size': 5, 'ssl_certificate': '', 'cronjob': False, 'numthreads': None, 'quiet': False, 'interfaces': None, 'import_models': False, 'timeout': 10, 'plain': False, 'nobanner': False}>"
p965
asbasbasbag68
(g84
g70
NtRp966
(dp967
g73
(dp968
sg82
g871
sg75
(lp969
g68
(g89
g70
NtRp970
(dp971
g73
(dp972
g93
g94
ssg82
g966
sg75
(lp973
S'db_sessions'
p974
asbag68
(g89
g70
NtRp975
(dp976
g73
(dp977
g100
g101
ssg82
g966
sg75
(lp978
S':'
asbag68
(g89
g70
NtRp979
(dp980
g73
(dp981
sg82
g966
sg75
(lp982
g68
(g69
g70
NtRp983
(dp984
g73
(dp985
g81
I4
ssg82
g979
sg75
(lp986
S'set([])'
p987
asbasbasbag68
(g84
g70
NtRp988
(dp989
g73
(dp990
sg82
g871
sg75
(lp991
g68
(g89
g70
NtRp992
(dp993
g73
(dp994
g93
g94
ssg82
g988
sg75
(lp995
S'debugging'
p996
asbag68
(g89
g70
NtRp997
(dp998
g73
(dp999
g100
g101
ssg82
g988
sg75
(lp1000
S':'
asbag68
(g89
g70
NtRp1001
(dp1002
g73
(dp1003
sg82
g988
sg75
(lp1004
g68
(g69
g70
NtRp1005
(dp1006
g73
(dp1007
g81
I4
ssg82
g1001
sg75
(lp1008
g111
asbasbasbag68
(g84
g70
NtRp1009
(dp1010
g73
(dp1011
sg82
g871
sg75
(lp1012
g68
(g89
g70
NtRp1013
(dp1014
g73
(dp1015
g93
g94
ssg82
g1009
sg75
(lp1016
S'gluon_parent'
p1017
asbag68
(g89
g70
NtRp1018
(dp1019
g73
(dp1020
g100
g101
ssg82
g1009
sg75
(lp1021
S':'
asbag68
(g89
g70
NtRp1022
(dp1023
g73
(dp1024
sg82
g1009
sg75
(lp1025
g68
(g69
g70
NtRp1026
(dp1027
g73
(dp1028
g81
I4
ssg82
g1022
sg75
(lp1029
S'/home/shipra/Desktop/Semester 1.2/ITWS-2/web2py'
p1030
asbasbasbag68
(g84
g70
NtRp1031
(dp1032
g73
(dp1033
sg82
g871
sg75
(lp1034
g68
(g89
g70
NtRp1035
(dp1036
g73
(dp1037
g93
g94
ssg82
g1031
sg75
(lp1038
S'http_accept'
p1039
asbag68
(g89
g70
NtRp1040
(dp1041
g73
(dp1042
g100
g101
ssg82
g1031
sg75
(lp1043
S':'
asbag68
(g89
g70
NtRp1044
(dp1045
g73
(dp1046
sg82
g1031
sg75
(lp1047
g68
(g69
g70
NtRp1048
(dp1049
g73
(dp1050
g81
I4
ssg82
g1044
sg75
(lp1051
S'text/html,application/xhtml+xml,application/xml;q=0.9,*/*;q=0.8'
p1052
asbasbasbag68
(g84
g70
NtRp1053
(dp1054
g73
(dp1055
sg82
g871
sg75
(lp1056
g68
(g89
g70
NtRp1057
(dp1058
g73
(dp1059
g93
g94
ssg82
g1053
sg75
(lp1060
S'http_accept_encoding'
p1061
asbag68
(g89
g70
NtRp1062
(dp1063
g73
(dp1064
g100
g101
ssg82
g1053
sg75
(lp1065
S':'
asbag68
(g89
g70
NtRp1066
(dp1067
g73
(dp1068
sg82
g1053
sg75
(lp1069
g68
(g69
g70
NtRp1070
(dp1071
g73
(dp1072
g81
I4
ssg82
g1066
sg75
(lp1073
S'gzip, deflate'
p1074
asbasbasbag68
(g84
g70
NtRp1075
(dp1076
g73
(dp1077
sg82
g871
sg75
(lp1078
g68
(g89
g70
NtRp1079
(dp1080
g73
(dp1081
g93
g94
ssg82
g1075
sg75
(lp1082
S'http_accept_language'
p1083
asbag68
(g89
g70
NtRp1084
(dp1085
g73
(dp1086
g100
g101
ssg82
g1075
sg75
(lp1087
S':'
asbag68
(g89
g70
NtRp1088
(dp1089
g73
(dp1090
sg82
g1075
sg75
(lp1091
g68
(g69
g70
NtRp1092
(dp1093
g73
(dp1094
g81
I4
ssg82
g1088
sg75
(lp1095
S'en-us,en;q=0.5'
p1096
asbasbasbag68
(g84
g70
NtRp1097
(dp1098
g73
(dp1099
sg82
g871
sg75
(lp1100
g68
(g89
g70
NtRp1101
(dp1102
g73
(dp1103
g93
g94
ssg82
g1097
sg75
(lp1104
S'http_connection'
p1105
asbag68
(g89
g70
NtRp1106
(dp1107
g73
(dp1108
g100
g101
ssg82
g1097
sg75
(lp1109
S':'
asbag68
(g89
g70
NtRp1110
(dp1111
g73
(dp1112
sg82
g1097
sg75
(lp1113
g68
(g69
g70
NtRp1114
(dp1115
g73
(dp1116
g81
I4
ssg82
g1110
sg75
(lp1117
S'keep-alive'
p1118
asbasbasbag68
(g84
g70
NtRp1119
(dp1120
g73
(dp1121
sg82
g871
sg75
(lp1122
g68
(g89
g70
NtRp1123
(dp1124
g73
(dp1125
g93
g94
ssg82
g1119
sg75
(lp1126
S'http_cookie'
p1127
asbag68
(g89
g70
NtRp1128
(dp1129
g73
(dp1130
g100
g101
ssg82
g1119
sg75
(lp1131
S':'
asbag68
(g89
g70
NtRp1132
(dp1133
g73
(dp1134
sg82
g1119
sg75
(lp1135
g68
(g69
g70
NtRp1136
(dp1137
g73
(dp1138
g81
I4
ssg82
g1132
sg75
(lp1139
S'__utma=96992031.1334412862.1364672878.1364672878.1364718243.2; __utmz=96992031.1364672878.1.1.utmcsr=(direct)|utmccn=(direct)|utmcmd=(none); __lc.visitor_id.1195381=S1364672235.4faffcf2d2; __ar_v4=OWHSPOGHTNEIPPPBMHVFTA%3A20130329%3A12%7CAMEDRHI4VZG4TIA2AZ565D%3A20130329%3A12%7CWAEQXC4B2NH3DDBR3TZM6I%3A20130329%3A12; mp_2093ad9ff9c5428a2228386de2f2b0e4_mixpanel=%7B%22distinct_id%22%3A%20%2262ffc2d0-7b9f-0130-efb0-22000a1cbb2a%22%2C%22is_registered_user%22%3A%20false%2C%22%24initial_referrer%22%3A%20%22%24direct%22%2C%22%24initial_referring_domain%22%3A%20%22%24direct%22%7D; session_id_welcome=127.0.0.1-bac479ef-22ec-41f7-a43d-cc54391f583c; session_id_admin=127.0.0.1-5d23d040-bd0d-400d-ad18-8db76262b069'
p1140
asbasbasbag68
(g84
g70
NtRp1141
(dp1142
g73
(dp1143
sg82
g871
sg75
(lp1144
g68
(g89
g70
NtRp1145
(dp1146
g73
(dp1147
g93
g94
ssg82
g1141
sg75
(lp1148
S'http_host'
p1149
asbag68
(g89
g70
NtRp1150
(dp1151
g73
(dp1152
g100
g101
ssg82
g1141
sg75
(lp1153
S':'
asbag68
(g89
g70
NtRp1154
(dp1155
g73
(dp1156
sg82
g1141
sg75
(lp1157
g68
(g69
g70
NtRp1158
(dp1159
g73
(dp1160
g81
I4
ssg82
g1154
sg75
(lp1161
S'127.0.0.1:8000'
p1162
asbasbasbag68
(g84
g70
NtRp1163
(dp1164
g73
(dp1165
sg82
g871
sg75
(lp1166
g68
(g89
g70
NtRp1167
(dp1168
g73
(dp1169
g93
g94
ssg82
g1163
sg75
(lp1170
S'http_user_agent'
p1171
asbag68
(g89
g70
NtRp1172
(dp1173
g73
(dp1174
g100
g101
ssg82
g1163
sg75
(lp1175
S':'
asbag68
(g89
g70
NtRp1176
(dp1177
g73
(dp1178
sg82
g1163
sg75
(lp1179
g68
(g69
g70
NtRp1180
(dp1181
g73
(dp1182
g81
I4
ssg82
g1176
sg75
(lp1183
S'Mozilla/5.0 (X11; Linux x86_64; rv:12.0) Gecko/20100101 Firefox/12.0'
p1184
asbasbasbag68
(g84
g70
NtRp1185
(dp1186
g73
(dp1187
sg82
g871
sg75
(lp1188
g68
(g89
g70
NtRp1189
(dp1190
g73
(dp1191
g93
g94
ssg82
g1185
sg75
(lp1192
S'is_jython'
p1193
asbag68
(g89
g70
NtRp1194
(dp1195
g73
(dp1196
g100
g101
ssg82
g1185
sg75
(lp1197
S':'
asbag68
(g89
g70
NtRp1198
(dp1199
g73
(dp1200
sg82
g1185
sg75
(lp1201
g68
(g69
g70
NtRp1202
(dp1203
g73
(dp1204
g81
I4
ssg82
g1198
sg75
(lp1205
g111
asbasbasbag68
(g84
g70
NtRp1206
(dp1207
g73
(dp1208
sg82
g871
sg75
(lp1209
g68
(g89
g70
NtRp1210
(dp1211
g73
(dp1212
g93
g94
ssg82
g1206
sg75
(lp1213
S'is_pypy'
p1214
asbag68
(g89
g70
NtRp1215
(dp1216
g73
(dp1217
g100
g101
ssg82
g1206
sg75
(lp1218
S':'
asbag68
(g89
g70
NtRp1219
(dp1220
g73
(dp1221
sg82
g1206
sg75
(lp1222
g68
(g69
g70
NtRp1223
(dp1224
g73
(dp1225
g81
I4
ssg82
g1219
sg75
(lp1226
g111
asbasbasbag68
(g84
g70
NtRp1227
(dp1228
g73
(dp1229
sg82
g871
sg75
(lp1230
g68
(g89
g70
NtRp1231
(dp1232
g73
(dp1233
g93
g94
ssg82
g1227
sg75
(lp1234
S'local_hosts'
p1235
asbag68
(g89
g70
NtRp1236
(dp1237
g73
(dp1238
g100
g101
ssg82
g1227
sg75
(lp1239
S':'
asbag68
(g89
g70
NtRp1240
(dp1241
g73
(dp1242
sg82
g1227
sg75
(lp1243
g68
(g69
g70
NtRp1244
(dp1245
g73
(dp1246
g81
I4
ssg82
g1240
sg75
(lp1247
g68
(g77
g70
NtRp1248
(dp1249
g73
(dp1250
g81
I3
ssg82
Nsg75
(lp1251
g68
(g84
g70
NtRp1252
(dp1253
g73
(dp1254
sg82
g1248
sg75
(lp1255
g68
(g89
g70
NtRp1256
(dp1257
g73
(dp1258
sg82
g1252
sg75
(lp1259
g68
(g69
g70
NtRp1260
(dp1261
g73
(dp1262
g81
I3
ssg82
g1256
sg75
(lp1263
S'::1'
p1264
asbasbasbag68
(g84
g70
NtRp1265
(dp1266
g73
(dp1267
sg82
g1248
sg75
(lp1268
g68
(g89
g70
NtRp1269
(dp1270
g73
(dp1271
sg82
g1265
sg75
(lp1272
g68
(g69
g70
NtRp1273
(dp1274
g73
(dp1275
g81
I3
ssg82
g1269
sg75
(lp1276
S'192.168.122.1'
p1277
asbasbasbag68
(g84
g70
NtRp1278
(dp1279
g73
(dp1280
sg82
g1248
sg75
(lp1281
g68
(g89
g70
NtRp1282
(dp1283
g73
(dp1284
sg82
g1278
sg75
(lp1285
g68
(g69
g70
NtRp1286
(dp1287
g73
(dp1288
g81
I3
ssg82
g1282
sg75
(lp1289
S'::ffff:127.0.0.1'
p1290
asbasbasbag68
(g84
g70
NtRp1291
(dp1292
g73
(dp1293
sg82
g1248
sg75
(lp1294
g68
(g89
g70
NtRp1295
(dp1296
g73
(dp1297
sg82
g1291
sg75
(lp1298
g68
(g69
g70
NtRp1299
(dp1300
g73
(dp1301
g81
I3
ssg82
g1295
sg75
(lp1302
S'127.0.0.1'
p1303
asbasbasbag68
(g84
g70
NtRp1304
(dp1305
g73
(dp1306
sg82
g1248
sg75
(lp1307
g68
(g89
g70
NtRp1308
(dp1309
g73
(dp1310
sg82
g1304
sg75
(lp1311
g68
(g69
g70
NtRp1312
(dp1313
g73
(dp1314
g81
I3
ssg82
g1308
sg75
(lp1315
S'shipra'
p1316
asbasbasbasbasbasbasbag68
(g84
g70
NtRp1317
(dp1318
g73
(dp1319
sg82
g871
sg75
(lp1320
g68
(g89
g70
NtRp1321
(dp1322
g73
(dp1323
g93
g94
ssg82
g1317
sg75
(lp1324
S'path_info'
p1325
asbag68
(g89
g70
NtRp1326
(dp1327
g73
(dp1328
g100
g101
ssg82
g1317
sg75
(lp1329
S':'
asbag68
(g89
g70
NtRp1330
(dp1331
g73
(dp1332
sg82
g1317
sg75
(lp1333
g68
(g69
g70
NtRp1334
(dp1335
g73
(dp1336
g81
I4
ssg82
g1330
sg75
(lp1337
S'/shipra/default/user/login'
p1338
asbasbasbag68
(g84
g70
NtRp1339
(dp1340
g73
(dp1341
sg82
g871
sg75
(lp1342
g68
(g89
g70
NtRp1343
(dp1344
g73
(dp1345
g93
g94
ssg82
g1339
sg75
(lp1346
S'query_string'
p1347
asbag68
(g89
g70
NtRp1348
(dp1349
g73
(dp1350
g100
g101
ssg82
g1339
sg75
(lp1351
S':'
asbag68
(g89
g70
NtRp1352
(dp1353
g73
(dp1354
sg82
g1339
sg75
(lp1355
g68
(g69
g70
NtRp1356
(dp1357
g73
(dp1358
g81
I4
ssg82
g1352
sg75
(lp1359
S''
asbasbasbag68
(g84
g70
NtRp1360
(dp1361
g73
(dp1362
sg82
g871
sg75
(lp1363
g68
(g89
g70
NtRp1364
(dp1365
g73
(dp1366
g93
g94
ssg82
g1360
sg75
(lp1367
S'remote_addr'
p1368
asbag68
(g89
g70
NtRp1369
(dp1370
g73
(dp1371
g100
g101
ssg82
g1360
sg75
(lp1372
S':'
asbag68
(g89
g70
NtRp1373
(dp1374
g73
(dp1375
sg82
g1360
sg75
(lp1376
g68
(g69
g70
NtRp1377
(dp1378
g73
(dp1379
g81
I4
ssg82
g1373
sg75
(lp1380
g236
asbasbasbag68
(g84
g70
NtRp1381
(dp1382
g73
(dp1383
sg82
g871
sg75
(lp1384
g68
(g89
g70
NtRp1385
(dp1386
g73
(dp1387
g93
g94
ssg82
g1381
sg75
(lp1388
S'remote_port'
p1389
asbag68
(g89
g70
NtRp1390
(dp1391
g73
(dp1392
g100
g101
ssg82
g1381
sg75
(lp1393
S':'
asbag68
(g89
g70
NtRp1394
(dp1395
g73
(dp1396
sg82
g1381
sg75
(lp1397
g68
(g69
g70
NtRp1398
(dp1399
g73
(dp1400
g81
I4
ssg82
g1394
sg75
(lp1401
S'46758'
p1402
asbasbasbag68
(g84
g70
NtRp1403
(dp1404
g73
(dp1405
sg82
g871
sg75
(lp1406
g68
(g89
g70
NtRp1407
(dp1408
g73
(dp1409
g93
g94
ssg82
g1403
sg75
(lp1410
S'request_method'
p1411
asbag68
(g89
g70
NtRp1412
(dp1413
g73
(dp1414
g100
g101
ssg82
g1403
sg75
(lp1415
S':'
asbag68
(g89
g70
NtRp1416
(dp1417
g73
(dp1418
sg82
g1403
sg75
(lp1419
g68
(g69
g70
NtRp1420
(dp1421
g73
(dp1422
g81
I4
ssg82
g1416
sg75
(lp1423
S'GET'
p1424
asbasbasbag68
(g84
g70
NtRp1425
(dp1426
g73
(dp1427
sg82
g871
sg75
(lp1428
g68
(g89
g70
NtRp1429
(dp1430
g73
(dp1431
g93
g94
ssg82
g1425
sg75
(lp1432
S'request_uri'
p1433
asbag68
(g89
g70
NtRp1434
(dp1435
g73
(dp1436
g100
g101
ssg82
g1425
sg75
(lp1437
S':'
asbag68
(g89
g70
NtRp1438
(dp1439
g73
(dp1440
sg82
g1425
sg75
(lp1441
g68
(g69
g70
NtRp1442
(dp1443
g73
(dp1444
g81
I4
ssg82
g1438
sg75
(lp1445
g1338
asbasbasbag68
(g84
g70
NtRp1446
(dp1447
g73
(dp1448
sg82
g871
sg75
(lp1449
g68
(g89
g70
NtRp1450
(dp1451
g73
(dp1452
g93
g94
ssg82
g1446
sg75
(lp1453
S'script_name'
p1454
asbag68
(g89
g70
NtRp1455
(dp1456
g73
(dp1457
g100
g101
ssg82
g1446
sg75
(lp1458
S':'
asbag68
(g89
g70
NtRp1459
(dp1460
g73
(dp1461
sg82
g1446
sg75
(lp1462
g68
(g69
g70
NtRp1463
(dp1464
g73
(dp1465
g81
I4
ssg82
g1459
sg75
(lp1466
S''
asbasbasbag68
(g84
g70
NtRp1467
(dp1468
g73
(dp1469
sg82
g871
sg75
(lp1470
g68
(g89
g70
NtRp1471
(dp1472
g73
(dp1473
g93
g94
ssg82
g1467
sg75
(lp1474
S'server_name'
p1475
asbag68
(g89
g70
NtRp1476
(dp1477
g73
(dp1478
g100
g101
ssg82
g1467
sg75
(lp1479
S':'
asbag68
(g89
g70
NtRp1480
(dp1481
g73
(dp1482
sg82
g1467
sg75
(lp1483
g68
(g69
g70
NtRp1484
(dp1485
g73
(dp1486
g81
I4
ssg82
g1480
sg75
(lp1487
S'shipra'
p1488
asbasbasbag68
(g84
g70
NtRp1489
(dp1490
g73
(dp1491
sg82
g871
sg75
(lp1492
g68
(g89
g70
NtRp1493
(dp1494
g73
(dp1495
g93
g94
ssg82
g1489
sg75
(lp1496
S'server_port'
p1497
asbag68
(g89
g70
NtRp1498
(dp1499
g73
(dp1500
g100
g101
ssg82
g1489
sg75
(lp1501
S':'
asbag68
(g89
g70
NtRp1502
(dp1503
g73
(dp1504
sg82
g1489
sg75
(lp1505
g68
(g69
g70
NtRp1506
(dp1507
g73
(dp1508
g81
I4
ssg82
g1502
sg75
(lp1509
S'8000'
p1510
asbasbasbag68
(g84
g70
NtRp1511
(dp1512
g73
(dp1513
sg82
g871
sg75
(lp1514
g68
(g89
g70
NtRp1515
(dp1516
g73
(dp1517
g93
g94
ssg82
g1511
sg75
(lp1518
S'server_protocol'
p1519
asbag68
(g89
g70
NtRp1520
(dp1521
g73
(dp1522
g100
g101
ssg82
g1511
sg75
(lp1523
S':'
asbag68
(g89
g70
NtRp1524
(dp1525
g73
(dp1526
sg82
g1511
sg75
(lp1527
g68
(g69
g70
NtRp1528
(dp1529
g73
(dp1530
g81
I4
ssg82
g1524
sg75
(lp1531
S'HTTP/1.1'
p1532
asbasbasbag68
(g84
g70
NtRp1533
(dp1534
g73
(dp1535
sg82
g871
sg75
(lp1536
g68
(g89
g70
NtRp1537
(dp1538
g73
(dp1539
g93
g94
ssg82
g1533
sg75
(lp1540
S'server_software'
p1541
asbag68
(g89
g70
NtRp1542
(dp1543
g73
(dp1544
g100
g101
ssg82
g1533
sg75
(lp1545
S':'
asbag68
(g89
g70
NtRp1546
(dp1547
g73
(dp1548
sg82
g1533
sg75
(lp1549
g68
(g69
g70
NtRp1550
(dp1551
g73
(dp1552
g81
I4
ssg82
g1546
sg75
(lp1553
S'Rocket 1.2.6'
p1554
asbasbasbag68
(g84
g70
NtRp1555
(dp1556
g73
(dp1557
sg82
g871
sg75
(lp1558
g68
(g89
g70
NtRp1559
(dp1560
g73
(dp1561
g93
g94
ssg82
g1555
sg75
(lp1562
S'web2py_path'
p1563
asbag68
(g89
g70
NtRp1564
(dp1565
g73
(dp1566
g100
g101
ssg82
g1555
sg75
(lp1567
S':'
asbag68
(g89
g70
NtRp1568
(dp1569
g73
(dp1570
sg82
g1555
sg75
(lp1571
g68
(g69
g70
NtRp1572
(dp1573
g73
(dp1574
g81
I4
ssg82
g1568
sg75
(lp1575
g918
asbasbasbag68
(g84
g70
NtRp1576
(dp1577
g73
(dp1578
sg82
g871
sg75
(lp1579
g68
(g89
g70
NtRp1580
(dp1581
g73
(dp1582
g93
g94
ssg82
g1576
sg75
(lp1583
S'web2py_version'
p1584
asbag68
(g89
g70
NtRp1585
(dp1586
g73
(dp1587
g100
g101
ssg82
g1576
sg75
(lp1588
S':'
asbag68
(g89
g70
NtRp1589
(dp1590
g73
(dp1591
sg82
g1576
sg75
(lp1592
g68
(g69
g70
NtRp1593
(dp1594
g73
(dp1595
g81
I4
ssg82
g1589
sg75
(lp1596
g68
(g77
g70
NtRp1597
(dp1598
g73
(dp1599
g81
I3
ssg82
Nsg75
(lp1600
g68
(g84
g70
NtRp1601
(dp1602
g73
(dp1603
sg82
g1597
sg75
(lp1604
g68
(g89
g70
NtRp1605
(dp1606
g73
(dp1607
sg82
g1601
sg75
(lp1608
g68
(g69
g70
NtRp1609
(dp1610
g73
(dp1611
g81
I3
ssg82
g1605
sg75
(lp1612
S'2'
asbasbasbag68
(g84
g70
NtRp1613
(dp1614
g73
(dp1615
sg82
g1597
sg75
(lp1616
g68
(g89
g70
NtRp1617
(dp1618
g73
(dp1619
sg82
g1613
sg75
(lp1620
g68
(g69
g70
NtRp1621
(dp1622
g73
(dp1623
g81
I3
ssg82
g1617
sg75
(lp1624
S'3'
asbasbasbag68
(g84
g70
NtRp1625
(dp1626
g73
(dp1627
sg82
g1597
sg75
(lp1628
g68
(g89
g70
NtRp1629
(dp1630
g73
(dp1631
sg82
g1625
sg75
(lp1632
g68
(g69
g70
NtRp1633
(dp1634
g73
(dp1635
g81
I3
ssg82
g1629
sg75
(lp1636
S'2'
asbasbasbag68
(g84
g70
NtRp1637
(dp1638
g73
(dp1639
sg82
g1597
sg75
(lp1640
g68
(g89
g70
NtRp1641
(dp1642
g73
(dp1643
sg82
g1637
sg75
(lp1644
g68
(g69
g70
NtRp1645
(dp1646
g73
(dp1647
g81
I3
ssg82
g1641
sg75
(lp1648
S'datetime.datetime(2012, 12, 17, 15, 3, 30)'
p1649
asbasbasbag68
(g84
g70
NtRp1650
(dp1651
g73
(dp1652
sg82
g1597
sg75
(lp1653
g68
(g89
g70
NtRp1654
(dp1655
g73
(dp1656
sg82
g1650
sg75
(lp1657
g68
(g69
g70
NtRp1658
(dp1659
g73
(dp1660
g81
I3
ssg82
g1654
sg75
(lp1661
S'stable'
p1662
asbasbasbasbasbasbasbag68
(g84
g70
NtRp1663
(dp1664
g73
(dp1665
sg82
g871
sg75
(lp1666
g68
(g89
g70
NtRp1667
(dp1668
g73
(dp1669
g93
g94
ssg82
g1663
sg75
(lp1670
S'wsgi_errors'
p1671
asbag68
(g89
g70
NtRp1672
(dp1673
g73
(dp1674
g100
g101
ssg82
g1663
sg75
(lp1675
S':'
asbag68
(g89
g70
NtRp1676
(dp1677
g73
(dp1678
sg82
g1663
sg75
(lp1679
g68
(g69
g70
NtRp1680
(dp1681
g73
(dp1682
g81
I4
ssg82
g1676
sg75
(lp1683
S"<open file '<stderr>', mode 'w' at 0x7f813e4ad270>"
p1684
asbasbasbag68
(g84
g70
NtRp1685
(dp1686
g73
(dp1687
sg82
g871
sg75
(lp1688
g68
(g89
g70
NtRp1689
(dp1690
g73
(dp1691
g93
g94
ssg82
g1685
sg75
(lp1692
S'wsgi_file_wrapper'
p1693
asbag68
(g89
g70
NtRp1694
(dp1695
g73
(dp1696
g100
g101
ssg82
g1685
sg75
(lp1697
S':'
asbag68
(g89
g70
NtRp1698
(dp1699
g73
(dp1700
sg82
g1685
sg75
(lp1701
g68
(g69
g70
NtRp1702
(dp1703
g73
(dp1704
g81
I4
ssg82
g1698
sg75
(lp1705
S'<class wsgiref.util.FileWrapper at 0x259adb8>'
p1706
asbasbasbag68
(g84
g70
NtRp1707
(dp1708
g73
(dp1709
sg82
g871
sg75
(lp1710
g68
(g89
g70
NtRp1711
(dp1712
g73
(dp1713
g93
g94
ssg82
g1707
sg75
(lp1714
S'wsgi_input'
p1715
asbag68
(g89
g70
NtRp1716
(dp1717
g73
(dp1718
g100
g101
ssg82
g1707
sg75
(lp1719
S':'
asbag68
(g89
g70
NtRp1720
(dp1721
g73
(dp1722
sg82
g1707
sg75
(lp1723
g68
(g69
g70
NtRp1724
(dp1725
g73
(dp1726
g81
I4
ssg82
g1720
sg75
(lp1727
S'<socket._fileobject object at 0x7f8118065650>'
p1728
asbasbasbag68
(g84
g70
NtRp1729
(dp1730
g73
(dp1731
sg82
g871
sg75
(lp1732
g68
(g89
g70
NtRp1733
(dp1734
g73
(dp1735
g93
g94
ssg82
g1729
sg75
(lp1736
S'wsgi_multiprocess'
p1737
asbag68
(g89
g70
NtRp1738
(dp1739
g73
(dp1740
g100
g101
ssg82
g1729
sg75
(lp1741
S':'
asbag68
(g89
g70
NtRp1742
(dp1743
g73
(dp1744
sg82
g1729
sg75
(lp1745
g68
(g69
g70
NtRp1746
(dp1747
g73
(dp1748
g81
I4
ssg82
g1742
sg75
(lp1749
g111
asbasbasbag68
(g84
g70
NtRp1750
(dp1751
g73
(dp1752
sg82
g871
sg75
(lp1753
g68
(g89
g70
NtRp1754
(dp1755
g73
(dp1756
g93
g94
ssg82
g1750
sg75
(lp1757
S'wsgi_multithread'
p1758
asbag68
(g89
g70
NtRp1759
(dp1760
g73
(dp1761
g100
g101
ssg82
g1750
sg75
(lp1762
S':'
asbag68
(g89
g70
NtRp1763
(dp1764
g73
(dp1765
sg82
g1750
sg75
(lp1766
g68
(g69
g70
NtRp1767
(dp1768
g73
(dp1769
g81
I4
ssg82
g1763
sg75
(lp1770
S'True'
p1771
asbasbasbag68
(g84
g70
NtRp1772
(dp1773
g73
(dp1774
sg82
g871
sg75
(lp1775
g68
(g89
g70
NtRp1776
(dp1777
g73
(dp1778
g93
g94
ssg82
g1772
sg75
(lp1779
S'wsgi_run_once'
p1780
asbag68
(g89
g70
NtRp1781
(dp1782
g73
(dp1783
g100
g101
ssg82
g1772
sg75
(lp1784
S':'
asbag68
(g89
g70
NtRp1785
(dp1786
g73
(dp1787
sg82
g1772
sg75
(lp1788
g68
(g69
g70
NtRp1789
(dp1790
g73
(dp1791
g81
I4
ssg82
g1785
sg75
(lp1792
g111
asbasbasbag68
(g84
g70
NtRp1793
(dp1794
g73
(dp1795
sg82
g871
sg75
(lp1796
g68
(g89
g70
NtRp1797
(dp1798
g73
(dp1799
g93
g94
ssg82
g1793
sg75
(lp1800
S'wsgi_url_scheme'
p1801
asbag68
(g89
g70
NtRp1802
(dp1803
g73
(dp1804
g100
g101
ssg82
g1793
sg75
(lp1805
S':'
asbag68
(g89
g70
NtRp1806
(dp1807
g73
(dp1808
sg82
g1793
sg75
(lp1809
g68
(g69
g70
NtRp1810
(dp1811
g73
(dp1812
g81
I4
ssg82
g1806
sg75
(lp1813
S'http'
p1814
asbasbasbag68
(g84
g70
NtRp1815
(dp1816
g73
(dp1817
sg82
g871
sg75
(lp1818
g68
(g89
g70
NtRp1819
(dp1820
g73
(dp1821
g93
g94
ssg82
g1815
sg75
(lp1822
S'wsgi_version'
p1823
asbag68
(g89
g70
NtRp1824
(dp1825
g73
(dp1826
g100
g101
ssg82
g1815
sg75
(lp1827
S':'
asbag68
(g89
g70
NtRp1828
(dp1829
g73
(dp1830
sg82
g1815
sg75
(lp1831
g68
(g69
g70
NtRp1832
(dp1833
g73
(dp1834
g81
I4
ssg82
g1828
sg75
(lp1835
g68
(g77
g70
NtRp1836
(dp1837
g73
(dp1838
g81
I3
ssg82
Nsg75
(lp1839
g68
(g84
g70
NtRp1840
(dp1841
g73
(dp1842
sg82
g1836
sg75
(lp1843
g68
(g89
g70
NtRp1844
(dp1845
g73
(dp1846
sg82
g1840
sg75
(lp1847
g68
(g69
g70
NtRp1848
(dp1849
g73
(dp1850
g81
I3
ssg82
g1844
sg75
(lp1851
S'1'
asbasbasbag68
(g84
g70
NtRp1852
(dp1853
g73
(dp1854
sg82
g1836
sg75
(lp1855
g68
(g89
g70
NtRp1856
(dp1857
g73
(dp1858
sg82
g1852
sg75
(lp1859
g68
(g69
g70
NtRp1860
(dp1861
g73
(dp1862
g81
I3
ssg82
g1856
sg75
(lp1863
S'0'
asbasbasbasbasbasbasbasbasbasbasbag68
(g84
g70
NtRp1864
(dp1865
g73
(dp1866
sg82
g78
sg75
(lp1867
g68
(g89
g70
NtRp1868
(dp1869
g73
(dp1870
g93
g94
ssg82
g1864
sg75
(lp1871
S'extension'
p1872
asbag68
(g89
g70
NtRp1873
(dp1874
g73
(dp1875
g100
g101
ssg82
g1864
sg75
(lp1876
S':'
asbag68
(g89
g70
NtRp1877
(dp1878
g73
(dp1879
sg82
g1864
sg75
(lp1880
g68
(g69
g70
NtRp1881
(dp1882
g73
(dp1883
g81
I5
ssg82
g1877
sg75
(lp1884
S'html'
p1885
asbasbasbag68
(g84
g70
NtRp1886
(dp1887
g73
(dp1888
sg82
g78
sg75
(lp1889
g68
(g89
g70
NtRp1890
(dp1891
g73
(dp1892
g93
g94
ssg82
g1886
sg75
(lp1893
S'folder'
p1894
asbag68
(g89
g70
NtRp1895
(dp1896
g73
(dp1897
g100
g101
ssg82
g1886
sg75
(lp1898
S':'
asbag68
(g89
g70
NtRp1899
(dp1900
g73
(dp1901
sg82
g1886
sg75
(lp1902
g68
(g69
g70
NtRp1903
(dp1904
g73
(dp1905
g81
I5
ssg82
g1899
sg75
(lp1906
S'/home/shipra/Desktop/Semester 1.2/ITWS-2/web2py/applications/shipra/'
p1907
asbasbasbag68
(g84
g70
NtRp1908
(dp1909
g73
(dp1910
sg82
g78
sg75
(lp1911
g68
(g89
g70
NtRp1912
(dp1913
g73
(dp1914
g93
g94
ssg82
g1908
sg75
(lp1915
S'function'
p1916
asbag68
(g89
g70
NtRp1917
(dp1918
g73
(dp1919
g100
g101
ssg82
g1908
sg75
(lp1920
S':'
asbag68
(g89
g70
NtRp1921
(dp1922
g73
(dp1923
sg82
g1908
sg75
(lp1924
g68
(g69
g70
NtRp1925
(dp1926
g73
(dp1927
g81
I5
ssg82
g1921
sg75
(lp1928
S'user'
p1929
asbasbasbag68
(g84
g70
NtRp1930
(dp1931
g73
(dp1932
sg82
g78
sg75
(lp1933
g68
(g89
g70
NtRp1934
(dp1935
g73
(dp1936
g93
g94
ssg82
g1930
sg75
(lp1937
S'get_vars'
p1938
asbag68
(g89
g70
NtRp1939
(dp1940
g73
(dp1941
g100
g101
ssg82
g1930
sg75
(lp1942
S':'
asbag68
(g89
g70
NtRp1943
(dp1944
g73
(dp1945
sg82
g1930
sg75
(lp1946
g68
(g69
g70
NtRp1947
(dp1948
g73
(dp1949
g81
I5
ssg82
g1943
sg75
(lp1950
g68
(g77
g70
NtRp1951
(dp1952
g73
(dp1953
g81
I4
ssg82
Nsg75
(lp1954
sbasbasbasbag68
(g84
g70
NtRp1955
(dp1956
g73
(dp1957
sg82
g78
sg75
(lp1958
g68
(g89
g70
NtRp1959
(dp1960
g73
(dp1961
g93
g94
ssg82
g1955
sg75
(lp1962
S'global_settings'
p1963
asbag68
(g89
g70
NtRp1964
(dp1965
g73
(dp1966
g100
g101
ssg82
g1955
sg75
(lp1967
S':'
asbag68
(g89
g70
NtRp1968
(dp1969
g73
(dp1970
sg82
g1955
sg75
(lp1971
g68
(g69
g70
NtRp1972
(dp1973
g73
(dp1974
g81
I5
ssg82
g1968
sg75
(lp1975
g68
(g77
g70
NtRp1976
(dp1977
g73
(dp1978
g81
I4
ssg82
Nsg75
(lp1979
g68
(g84
g70
NtRp1980
(dp1981
g73
(dp1982
sg82
g1976
sg75
(lp1983
g68
(g89
g70
NtRp1984
(dp1985
g73
(dp1986
g93
g94
ssg82
g1980
sg75
(lp1987
g883
asbag68
(g89
g70
NtRp1988
(dp1989
g73
(dp1990
g100
g101
ssg82
g1980
sg75
(lp1991
S':'
asbag68
(g89
g70
NtRp1992
(dp1993
g73
(dp1994
sg82
g1980
sg75
(lp1995
g68
(g69
g70
NtRp1996
(dp1997
g73
(dp1998
g81
I4
ssg82
g1992
sg75
(lp1999
S"set(['/home/shipra/Desktop/Semester 1.2/ITWS-2/web2py/applications/shipra/', '/home/shipra/Desktop/Semester 1.2/ITWS-2/web2py/applications/welcome/', '/home/shipra/Desktop/Semester 1.2/ITWS-2/web2py/applications/admin/'])"
p2000
asbasbasbag68
(g84
g70
NtRp2001
(dp2002
g73
(dp2003
sg82
g1976
sg75
(lp2004
g68
(g89
g70
NtRp2005
(dp2006
g73
(dp2007
g93
g94
ssg82
g2001
sg75
(lp2008
g905
asbag68
(g89
g70
NtRp2009
(dp2010
g73
(dp2011
g100
g101
ssg82
g2001
sg75
(lp2012
S':'
asbag68
(g89
g70
NtRp2013
(dp2014
g73
(dp2015
sg82
g2001
sg75
(lp2016
g68
(g69
g70
NtRp2017
(dp2018
g73
(dp2019
g81
I4
ssg82
g2013
sg75
(lp2020
g918
asbasbasbag68
(g84
g70
NtRp2021
(dp2022
g73
(dp2023
sg82
g1976
sg75
(lp2024
g68
(g89
g70
NtRp2025
(dp2026
g73
(dp2027
g93
g94
ssg82
g2021
sg75
(lp2028
g927
asbag68
(g89
g70
NtRp2029
(dp2030
g73
(dp2031
g100
g101
ssg82
g2021
sg75
(lp2032
S':'
asbag68
(g89
g70
NtRp2033
(dp2034
g73
(dp2035
sg82
g2021
sg75
(lp2036
g68
(g69
g70
NtRp2037
(dp2038
g73
(dp2039
g81
I4
ssg82
g2033
sg75
(lp2040
g68
(g77
g70
NtRp2041
(dp2042
g73
(dp2043
g81
I3
ssg82
Nsg75
(lp2044
sbasbasbasbag68
(g84
g70
NtRp2045
(dp2046
g73
(dp2047
sg82
g1976
sg75
(lp2048
g68
(g89
g70
NtRp2049
(dp2050
g73
(dp2051
g93
g94
ssg82
g2045
sg75
(lp2052
g952
asbag68
(g89
g70
NtRp2053
(dp2054
g73
(dp2055
g100
g101
ssg82
g2045
sg75
(lp2056
S':'
asbag68
(g89
g70
NtRp2057
(dp2058
g73
(dp2059
sg82
g2045
sg75
(lp2060
g68
(g69
g70
NtRp2061
(dp2062
g73
(dp2063
g81
I4
ssg82
g2057
sg75
(lp2064
S"<Values at 0x2611248: {'verbose': False, 'ip': '127.0.0.1', 'with_scheduler': False, 'ips': ['192.168.122.1'], 'shutdown_timeout': 5, 'taskbar': False, 'port': 8000, 'maxthreads': None, 'softcron': False, 'server_name': 'shipra', 'bpython': False, 'nogui': False, 'pid_filename': 'httpserver.pid', 'extcron': False, 'runcron': False, 'run_system_tests': False, 'test': None, 'folder': '/home/shipra/Desktop/Semester 1.2/ITWS-2/web2py', 'config': '', 'minthreads': None, 'winservice': '', 'shell': None, 'run': '', 'log_filename': 'httpserver.log', 'debuglevel': 30, 'args': [''], 'socket_timeout': 5, 'ssl_ca_certificate': None, 'scheduler': None, 'profiler_filename': None, 'ssl_private_key': '', 'scheduler_groups': None, 'password': '<ask>', 'request_queue_size': 5, 'ssl_certificate': '', 'cronjob': False, 'numthreads': None, 'quiet': False, 'interfaces': None, 'import_models': False, 'timeout': 10, 'plain': False, 'nobanner': False}>"
p2065
asbasbasbag68
(g84
g70
NtRp2066
(dp2067
g73
(dp2068
sg82
g1976
sg75
(lp2069
g68
(g89
g70
NtRp2070
(dp2071
g73
(dp2072
g93
g94
ssg82
g2066
sg75
(lp2073
g974
asbag68
(g89
g70
NtRp2074
(dp2075
g73
(dp2076
g100
g101
ssg82
g2066
sg75
(lp2077
S':'
asbag68
(g89
g70
NtRp2078
(dp2079
g73
(dp2080
sg82
g2066
sg75
(lp2081
g68
(g69
g70
NtRp2082
(dp2083
g73
(dp2084
g81
I4
ssg82
g2078
sg75
(lp2085
S'set([])'
p2086
asbasbasbag68
(g84
g70
NtRp2087
(dp2088
g73
(dp2089
sg82
g1976
sg75
(lp2090
g68
(g89
g70
NtRp2091
(dp2092
g73
(dp2093
g93
g94
ssg82
g2087
sg75
(lp2094
g996
asbag68
(g89
g70
NtRp2095
(dp2096
g73
(dp2097
g100
g101
ssg82
g2087
sg75
(lp2098
S':'
asbag68
(g89
g70
NtRp2099
(dp2100
g73
(dp2101
sg82
g2087
sg75
(lp2102
g68
(g69
g70
NtRp2103
(dp2104
g73
(dp2105
g81
I4
ssg82
g2099
sg75
(lp2106
g111
asbasbasbag68
(g84
g70
NtRp2107
(dp2108
g73
(dp2109
sg82
g1976
sg75
(lp2110
g68
(g89
g70
NtRp2111
(dp2112
g73
(dp2113
g93
g94
ssg82
g2107
sg75
(lp2114
g1017
asbag68
(g89
g70
NtRp2115
(dp2116
g73
(dp2117
g100
g101
ssg82
g2107
sg75
(lp2118
S':'
asbag68
(g89
g70
NtRp2119
(dp2120
g73
(dp2121
sg82
g2107
sg75
(lp2122
g68
(g69
g70
NtRp2123
(dp2124
g73
(dp2125
g81
I4
ssg82
g2119
sg75
(lp2126
g1030
asbasbasbag68
(g84
g70
NtRp2127
(dp2128
g73
(dp2129
sg82
g1976
sg75
(lp2130
g68
(g89
g70
NtRp2131
(dp2132
g73
(dp2133
g93
g94
ssg82
g2127
sg75
(lp2134
g1193
asbag68
(g89
g70
NtRp2135
(dp2136
g73
(dp2137
g100
g101
ssg82
g2127
sg75
(lp2138
S':'
asbag68
(g89
g70
NtRp2139
(dp2140
g73
(dp2141
sg82
g2127
sg75
(lp2142
g68
(g69
g70
NtRp2143
(dp2144
g73
(dp2145
g81
I4
ssg82
g2139
sg75
(lp2146
g111
asbasbasbag68
(g84
g70
NtRp2147
(dp2148
g73
(dp2149
sg82
g1976
sg75
(lp2150
g68
(g89
g70
NtRp2151
(dp2152
g73
(dp2153
g93
g94
ssg82
g2147
sg75
(lp2154
g1214
asbag68
(g89
g70
NtRp2155
(dp2156
g73
(dp2157
g100
g101
ssg82
g2147
sg75
(lp2158
S':'
asbag68
(g89
g70
NtRp2159
(dp2160
g73
(dp2161
sg82
g2147
sg75
(lp2162
g68
(g69
g70
NtRp2163
(dp2164
g73
(dp2165
g81
I4
ssg82
g2159
sg75
(lp2166
g111
asbasbasbag68
(g84
g70
NtRp2167
(dp2168
g73
(dp2169
sg82
g1976
sg75
(lp2170
g68
(g89
g70
NtRp2171
(dp2172
g73
(dp2173
g93
g94
ssg82
g2167
sg75
(lp2174
g1235
asbag68
(g89
g70
NtRp2175
(dp2176
g73
(dp2177
g100
g101
ssg82
g2167
sg75
(lp2178
S':'
asbag68
(g89
g70
NtRp2179
(dp2180
g73
(dp2181
sg82
g2167
sg75
(lp2182
g68
(g69
g70
NtRp2183
(dp2184
g73
(dp2185
g81
I4
ssg82
g2179
sg75
(lp2186
g68
(g77
g70
NtRp2187
(dp2188
g73
(dp2189
g81
I3
ssg82
Nsg75
(lp2190
g68
(g84
g70
NtRp2191
(dp2192
g73
(dp2193
sg82
g2187
sg75
(lp2194
g68
(g89
g70
NtRp2195
(dp2196
g73
(dp2197
sg82
g2191
sg75
(lp2198
g68
(g69
g70
NtRp2199
(dp2200
g73
(dp2201
g81
I3
ssg82
g2195
sg75
(lp2202
g1264
asbasbasbag68
(g84
g70
NtRp2203
(dp2204
g73
(dp2205
sg82
g2187
sg75
(lp2206
g68
(g89
g70
NtRp2207
(dp2208
g73
(dp2209
sg82
g2203
sg75
(lp2210
g68
(g69
g70
NtRp2211
(dp2212
g73
(dp2213
g81
I3
ssg82
g2207
sg75
(lp2214
g1277
asbasbasbag68
(g84
g70
NtRp2215
(dp2216
g73
(dp2217
sg82
g2187
sg75
(lp2218
g68
(g89
g70
NtRp2219
(dp2220
g73
(dp2221
sg82
g2215
sg75
(lp2222
g68
(g69
g70
NtRp2223
(dp2224
g73
(dp2225
g81
I3
ssg82
g2219
sg75
(lp2226
g1290
asbasbasbag68
(g84
g70
NtRp2227
(dp2228
g73
(dp2229
sg82
g2187
sg75
(lp2230
g68
(g89
g70
NtRp2231
(dp2232
g73
(dp2233
sg82
g2227
sg75
(lp2234
g68
(g69
g70
NtRp2235
(dp2236
g73
(dp2237
g81
I3
ssg82
g2231
sg75
(lp2238
g1303
asbasbasbag68
(g84
g70
NtRp2239
(dp2240
g73
(dp2241
sg82
g2187
sg75
(lp2242
g68
(g89
g70
NtRp2243
(dp2244
g73
(dp2245
sg82
g2239
sg75
(lp2246
g68
(g69
g70
NtRp2247
(dp2248
g73
(dp2249
g81
I3
ssg82
g2243
sg75
(lp2250
g1316
asbasbasbasbasbasbasbag68
(g84
g70
NtRp2251
(dp2252
g73
(dp2253
sg82
g1976
sg75
(lp2254
g68
(g89
g70
NtRp2255
(dp2256
g73
(dp2257
g93
g94
ssg82
g2251
sg75
(lp2258
g1584
asbag68
(g89
g70
NtRp2259
(dp2260
g73
(dp2261
g100
g101
ssg82
g2251
sg75
(lp2262
S':'
asbag68
(g89
g70
NtRp2263
(dp2264
g73
(dp2265
sg82
g2251
sg75
(lp2266
g68
(g69
g70
NtRp2267
(dp2268
g73
(dp2269
g81
I4
ssg82
g2263
sg75
(lp2270
g68
(g77
g70
NtRp2271
(dp2272
g73
(dp2273
g81
I3
ssg82
Nsg75
(lp2274
g68
(g84
g70
NtRp2275
(dp2276
g73
(dp2277
sg82
g2271
sg75
(lp2278
g68
(g89
g70
NtRp2279
(dp2280
g73
(dp2281
sg82
g2275
sg75
(lp2282
g68
(g69
g70
NtRp2283
(dp2284
g73
(dp2285
g81
I3
ssg82
g2279
sg75
(lp2286
S'2'
asbasbasbag68
(g84
g70
NtRp2287
(dp2288
g73
(dp2289
sg82
g2271
sg75
(lp2290
g68
(g89
g70
NtRp2291
(dp2292
g73
(dp2293
sg82
g2287
sg75
(lp2294
g68
(g69
g70
NtRp2295
(dp2296
g73
(dp2297
g81
I3
ssg82
g2291
sg75
(lp2298
S'3'
asbasbasbag68
(g84
g70
NtRp2299
(dp2300
g73
(dp2301
sg82
g2271
sg75
(lp2302
g68
(g89
g70
NtRp2303
(dp2304
g73
(dp2305
sg82
g2299
sg75
(lp2306
g68
(g69
g70
NtRp2307
(dp2308
g73
(dp2309
g81
I3
ssg82
g2303
sg75
(lp2310
S'2'
asbasbasbag68
(g84
g70
NtRp2311
(dp2312
g73
(dp2313
sg82
g2271
sg75
(lp2314
g68
(g89
g70
NtRp2315
(dp2316
g73
(dp2317
sg82
g2311
sg75
(lp2318
g68
(g69
g70
NtRp2319
(dp2320
g73
(dp2321
g81
I3
ssg82
g2315
sg75
(lp2322
S'datetime.datetime(2012, 12, 17, 15, 3, 30)'
p2323
asbasbasbag68
(g84
g70
NtRp2324
(dp2325
g73
(dp2326
sg82
g2271
sg75
(lp2327
g68
(g89
g70
NtRp2328
(dp2329
g73
(dp2330
sg82
g2324
sg75
(lp2331
g68
(g69
g70
NtRp2332
(dp2333
g73
(dp2334
g81
I3
ssg82
g2328
sg75
(lp2335
g1662
asbasbasbasbasbasbasbasbasbasbasbag68
(g84
g70
NtRp2336
(dp2337
g73
(dp2338
sg82
g78
sg75
(lp2339
g68
(g89
g70
NtRp2340
(dp2341
g73
(dp2342
g93
g94
ssg82
g2336
sg75
(lp2343
S'is_https'
p2344
asbag68
(g89
g70
NtRp2345
(dp2346
g73
(dp2347
g100
g101
ssg82
g2336
sg75
(lp2348
S':'
asbag68
(g89
g70
NtRp2349
(dp2350
g73
(dp2351
sg82
g2336
sg75
(lp2352
g68
(g69
g70
NtRp2353
(dp2354
g73
(dp2355
g81
I5
ssg82
g2349
sg75
(lp2356
g111
asbasbasbag68
(g84
g70
NtRp2357
(dp2358
g73
(dp2359
sg82
g78
sg75
(lp2360
g68
(g89
g70
NtRp2361
(dp2362
g73
(dp2363
g93
g94
ssg82
g2357
sg75
(lp2364
S'is_local'
p2365
asbag68
(g89
g70
NtRp2366
(dp2367
g73
(dp2368
g100
g101
ssg82
g2357
sg75
(lp2369
S':'
asbag68
(g89
g70
NtRp2370
(dp2371
g73
(dp2372
sg82
g2357
sg75
(lp2373
g68
(g69
g70
NtRp2374
(dp2375
g73
(dp2376
g81
I5
ssg82
g2370
sg75
(lp2377
g1771
asbasbasbag68
(g84
g70
NtRp2378
(dp2379
g73
(dp2380
sg82
g78
sg75
(lp2381
g68
(g89
g70
NtRp2382
(dp2383
g73
(dp2384
g93
g94
ssg82
g2378
sg75
(lp2385
S'is_restful'
p2386
asbag68
(g89
g70
NtRp2387
(dp2388
g73
(dp2389
g100
g101
ssg82
g2378
sg75
(lp2390
S':'
asbag68
(g89
g70
NtRp2391
(dp2392
g73
(dp2393
sg82
g2378
sg75
(lp2394
g68
(g69
g70
NtRp2395
(dp2396
g73
(dp2397
g81
I5
ssg82
g2391
sg75
(lp2398
g111
asbasbasbag68
(g84
g70
NtRp2399
(dp2400
g73
(dp2401
sg82
g78
sg75
(lp2402
g68
(g89
g70
NtRp2403
(dp2404
g73
(dp2405
g93
g94
ssg82
g2399
sg75
(lp2406
S'now'
p2407
asbag68
(g89
g70
NtRp2408
(dp2409
g73
(dp2410
g100
g101
ssg82
g2399
sg75
(lp2411
S':'
asbag68
(g89
g70
NtRp2412
(dp2413
g73
(dp2414
sg82
g2399
sg75
(lp2415
g68
(g69
g70
NtRp2416
(dp2417
g73
(dp2418
g81
I5
ssg82
g2412
sg75
(lp2419
S'datetime.datetime(2013, 4, 1, 23, 10, 0, 82987)'
p2420
asbasbasbag68
(g84
g70
NtRp2421
(dp2422
g73
(dp2423
sg82
g78
sg75
(lp2424
g68
(g89
g70
NtRp2425
(dp2426
g73
(dp2427
g93
g94
ssg82
g2421
sg75
(lp2428
S'post_vars'
p2429
asbag68
(g89
g70
NtRp2430
(dp2431
g73
(dp2432
g100
g101
ssg82
g2421
sg75
(lp2433
S':'
asbag68
(g89
g70
NtRp2434
(dp2435
g73
(dp2436
sg82
g2421
sg75
(lp2437
g68
(g69
g70
NtRp2438
(dp2439
g73
(dp2440
g81
I5
ssg82
g2434
sg75
(lp2441
g68
(g77
g70
NtRp2442
(dp2443
g73
(dp2444
g81
I4
ssg82
Nsg75
(lp2445
sbasbasbasbag68
(g84
g70
NtRp2446
(dp2447
g73
(dp2448
sg82
g78
sg75
(lp2449
g68
(g89
g70
NtRp2450
(dp2451
g73
(dp2452
g93
g94
ssg82
g2446
sg75
(lp2453
S'raw_args'
p2454
asbag68
(g89
g70
NtRp2455
(dp2456
g73
(dp2457
g100
g101
ssg82
g2446
sg75
(lp2458
S':'
asbag68
(g89
g70
NtRp2459
(dp2460
g73
(dp2461
sg82
g2446
sg75
(lp2462
g68
(g69
g70
NtRp2463
(dp2464
g73
(dp2465
g81
I5
ssg82
g2459
sg75
(lp2466
g170
asbasbasbag68
(g84
g70
NtRp2467
(dp2468
g73
(dp2469
sg82
g78
sg75
(lp2470
g68
(g89
g70
NtRp2471
(dp2472
g73
(dp2473
g93
g94
ssg82
g2467
sg75
(lp2474
S'raw_extension'
p2475
asbag68
(g89
g70
NtRp2476
(dp2477
g73
(dp2478
g100
g101
ssg82
g2467
sg75
(lp2479
S':'
asbag68
(g89
g70
NtRp2480
(dp2481
g73
(dp2482
sg82
g2467
sg75
(lp2483
g68
(g69
g70
NtRp2484
(dp2485
g73
(dp2486
g81
I5
ssg82
g2480
sg75
(lp2487
S'None'
p2488
asbasbasbag68
(g84
g70
NtRp2489
(dp2490
g73
(dp2491
sg82
g78
sg75
(lp2492
g68
(g89
g70
NtRp2493
(dp2494
g73
(dp2495
g93
g94
ssg82
g2489
sg75
(lp2496
S'url'
p2497
asbag68
(g89
g70
NtRp2498
(dp2499
g73
(dp2500
g100
g101
ssg82
g2489
sg75
(lp2501
S':'
asbag68
(g89
g70
NtRp2502
(dp2503
g73
(dp2504
sg82
g2489
sg75
(lp2505
g68
(g69
g70
NtRp2506
(dp2507
g73
(dp2508
g81
I5
ssg82
g2502
sg75
(lp2509
g1338
asbasbasbag68
(g84
g70
NtRp2510
(dp2511
g73
(dp2512
sg82
g78
sg75
(lp2513
g68
(g89
g70
NtRp2514
(dp2515
g73
(dp2516
g93
g94
ssg82
g2510
sg75
(lp2517
S'utcnow'
p2518
asbag68
(g89
g70
NtRp2519
(dp2520
g73
(dp2521
g100
g101
ssg82
g2510
sg75
(lp2522
S':'
asbag68
(g89
g70
NtRp2523
(dp2524
g73
(dp2525
sg82
g2510
sg75
(lp2526
g68
(g69
g70
NtRp2527
(dp2528
g73
(dp2529
g81
I5
ssg82
g2523
sg75
(lp2530
S'datetime.datetime(2013, 4, 1, 17, 40, 0, 83017)'
p2531
asbasbasbag68
(g84
g70
NtRp2532
(dp2533
g73
(dp2534
sg82
g78
sg75
(lp2535
g68
(g89
g70
NtRp2536
(dp2537
g73
(dp2538
g93
g94
ssg82
g2532
sg75
(lp2539
S'uuid'
p2540
asbag68
(g89
g70
NtRp2541
(dp2542
g73
(dp2543
g100
g101
ssg82
g2532
sg75
(lp2544
S':'
asbag68
(g89
g70
NtRp2545
(dp2546
g73
(dp2547
sg82
g2532
sg75
(lp2548
g68
(g69
g70
NtRp2549
(dp2550
g73
(dp2551
g81
I5
ssg82
g2545
sg75
(lp2552
S'shipra/127.0.0.1.2013-04-01.23-10-00.e9423caa-6dac-452f-9a7b-bd305f4f4b64'
p2553
asbasbasbag68
(g84
g70
NtRp2554
(dp2555
g73
(dp2556
sg82
g78
sg75
(lp2557
g68
(g89
g70
NtRp2558
(dp2559
g73
(dp2560
g93
g94
ssg82
g2554
sg75
(lp2561
S'vars'
p2562
asbag68
(g89
g70
NtRp2563
(dp2564
g73
(dp2565
g100
g101
ssg82
g2554
sg75
(lp2566
S':'
asbag68
(g89
g70
NtRp2567
(dp2568
g73
(dp2569
sg82
g2554
sg75
(lp2570
g68
(g69
g70
NtRp2571
(dp2572
g73
(dp2573
g81
I5
ssg82
g2567
sg75
(lp2574
g68
(g77
g70
NtRp2575
(dp2576
g73
(dp2577
g81
I4
ssg82
Nsg75
(lp2578
sbasbasbasbag68
(g84
g70
NtRp2579
(dp2580
g73
(dp2581
sg82
g78
sg75
(lp2582
g68
(g89
g70
NtRp2583
(dp2584
g73
(dp2585
g93
g94
ssg82
g2579
sg75
(lp2586
S'wsgi'
p2587
asbag68
(g89
g70
NtRp2588
(dp2589
g73
(dp2590
g100
g101
ssg82
g2579
sg75
(lp2591
S':'
asbag68
(g89
g70
NtRp2592
(dp2593
g73
(dp2594
sg82
g2579
sg75
(lp2595
g68
(g69
g70
NtRp2596
(dp2597
g73
(dp2598
g81
I5
ssg82
g2592
sg75
(lp2599
g68
(g77
g70
NtRp2600
(dp2601
g73
(dp2602
g81
I4
ssg82
Nsg75
(lp2603
g68
(g84
g70
NtRp2604
(dp2605
g73
(dp2606
sg82
g2600
sg75
(lp2607
g68
(g89
g70
NtRp2608
(dp2609
g73
(dp2610
g93
g94
ssg82
g2604
sg75
(lp2611
S'environ'
p2612
asbag68
(g89
g70
NtRp2613
(dp2614
g73
(dp2615
g100
g101
ssg82
g2604
sg75
(lp2616
S':'
asbag68
(g89
g70
NtRp2617
(dp2618
g73
(dp2619
sg82
g2604
sg75
(lp2620
g68
(g69
g70
NtRp2621
(dp2622
g73
(dp2623
g81
I4
ssg82
g2617
sg75
(lp2624
g68
(g77
g70
NtRp2625
(dp2626
g73
(dp2627
g81
I3
ssg82
Nsg75
(lp2628
g68
(g84
g70
NtRp2629
(dp2630
g73
(dp2631
sg82
g2625
sg75
(lp2632
g68
(g89
g70
NtRp2633
(dp2634
g73
(dp2635
g93
g94
ssg82
g2629
sg75
(lp2636
S'HTTP_ACCEPT'
p2637
asbag68
(g89
g70
NtRp2638
(dp2639
g73
(dp2640
g100
g101
ssg82
g2629
sg75
(lp2641
S':'
asbag68
(g89
g70
NtRp2642
(dp2643
g73
(dp2644
sg82
g2629
sg75
(lp2645
g68
(g69
g70
NtRp2646
(dp2647
g73
(dp2648
g81
I3
ssg82
g2642
sg75
(lp2649
g1052
asbasbasbag68
(g84
g70
NtRp2650
(dp2651
g73
(dp2652
sg82
g2625
sg75
(lp2653
g68
(g89
g70
NtRp2654
(dp2655
g73
(dp2656
g93
g94
ssg82
g2650
sg75
(lp2657
S'HTTP_ACCEPT_ENCODING'
p2658
asbag68
(g89
g70
NtRp2659
(dp2660
g73
(dp2661
g100
g101
ssg82
g2650
sg75
(lp2662
S':'
asbag68
(g89
g70
NtRp2663
(dp2664
g73
(dp2665
sg82
g2650
sg75
(lp2666
g68
(g69
g70
NtRp2667
(dp2668
g73
(dp2669
g81
I3
ssg82
g2663
sg75
(lp2670
g1074
asbasbasbag68
(g84
g70
NtRp2671
(dp2672
g73
(dp2673
sg82
g2625
sg75
(lp2674
g68
(g89
g70
NtRp2675
(dp2676
g73
(dp2677
g93
g94
ssg82
g2671
sg75
(lp2678
S'HTTP_ACCEPT_LANGUAGE'
p2679
asbag68
(g89
g70
NtRp2680
(dp2681
g73
(dp2682
g100
g101
ssg82
g2671
sg75
(lp2683
S':'
asbag68
(g89
g70
NtRp2684
(dp2685
g73
(dp2686
sg82
g2671
sg75
(lp2687
g68
(g69
g70
NtRp2688
(dp2689
g73
(dp2690
g81
I3
ssg82
g2684
sg75
(lp2691
g1096
asbasbasbag68
(g84
g70
NtRp2692
(dp2693
g73
(dp2694
sg82
g2625
sg75
(lp2695
g68
(g89
g70
NtRp2696
(dp2697
g73
(dp2698
g93
g94
ssg82
g2692
sg75
(lp2699
S'HTTP_CONNECTION'
p2700
asbag68
(g89
g70
NtRp2701
(dp2702
g73
(dp2703
g100
g101
ssg82
g2692
sg75
(lp2704
S':'
asbag68
(g89
g70
NtRp2705
(dp2706
g73
(dp2707
sg82
g2692
sg75
(lp2708
g68
(g69
g70
NtRp2709
(dp2710
g73
(dp2711
g81
I3
ssg82
g2705
sg75
(lp2712
g1118
asbasbasbag68
(g84
g70
NtRp2713
(dp2714
g73
(dp2715
sg82
g2625
sg75
(lp2716
g68
(g89
g70
NtRp2717
(dp2718
g73
(dp2719
g93
g94
ssg82
g2713
sg75
(lp2720
S'HTTP_COOKIE'
p2721
asbag68
(g89
g70
NtRp2722
(dp2723
g73
(dp2724
g100
g101
ssg82
g2713
sg75
(lp2725
S':'
asbag68
(g89
g70
NtRp2726
(dp2727
g73
(dp2728
sg82
g2713
sg75
(lp2729
g68
(g69
g70
NtRp2730
(dp2731
g73
(dp2732
g81
I3
ssg82
g2726
sg75
(lp2733
g1140
asbasbasbag68
(g84
g70
NtRp2734
(dp2735
g73
(dp2736
sg82
g2625
sg75
(lp2737
g68
(g89
g70
NtRp2738
(dp2739
g73
(dp2740
g93
g94
ssg82
g2734
sg75
(lp2741
S'HTTP_HOST'
p2742
asbag68
(g89
g70
NtRp2743
(dp2744
g73
(dp2745
g100
g101
ssg82
g2734
sg75
(lp2746
S':'
asbag68
(g89
g70
NtRp2747
(dp2748
g73
(dp2749
sg82
g2734
sg75
(lp2750
g68
(g69
g70
NtRp2751
(dp2752
g73
(dp2753
g81
I3
ssg82
g2747
sg75
(lp2754
g1162
asbasbasbag68
(g84
g70
NtRp2755
(dp2756
g73
(dp2757
sg82
g2625
sg75
(lp2758
g68
(g89
g70
NtRp2759
(dp2760
g73
(dp2761
g93
g94
ssg82
g2755
sg75
(lp2762
S'HTTP_USER_AGENT'
p2763
asbag68
(g89
g70
NtRp2764
(dp2765
g73
(dp2766
g100
g101
ssg82
g2755
sg75
(lp2767
S':'
asbag68
(g89
g70
NtRp2768
(dp2769
g73
(dp2770
sg82
g2755
sg75
(lp2771
g68
(g69
g70
NtRp2772
(dp2773
g73
(dp2774
g81
I3
ssg82
g2768
sg75
(lp2775
g1184
asbasbasbag68
(g84
g70
NtRp2776
(dp2777
g73
(dp2778
sg82
g2625
sg75
(lp2779
g68
(g89
g70
NtRp2780
(dp2781
g73
(dp2782
g93
g94
ssg82
g2776
sg75
(lp2783
S'PATH_INFO'
p2784
asbag68
(g89
g70
NtRp2785
(dp2786
g73
(dp2787
g100
g101
ssg82
g2776
sg75
(lp2788
S':'
asbag68
(g89
g70
NtRp2789
(dp2790
g73
(dp2791
sg82
g2776
sg75
(lp2792
g68
(g69
g70
NtRp2793
(dp2794
g73
(dp2795
g81
I3
ssg82
g2789
sg75
(lp2796
g1338
asbasbasbag68
(g84
g70
NtRp2797
(dp2798
g73
(dp2799
sg82
g2625
sg75
(lp2800
g68
(g89
g70
NtRp2801
(dp2802
g73
(dp2803
g93
g94
ssg82
g2797
sg75
(lp2804
S'QUERY_STRING'
p2805
asbag68
(g89
g70
NtRp2806
(dp2807
g73
(dp2808
g100
g101
ssg82
g2797
sg75
(lp2809
S':'
asbag68
(g89
g70
NtRp2810
(dp2811
g73
(dp2812
sg82
g2797
sg75
(lp2813
g68
(g69
g70
NtRp2814
(dp2815
g73
(dp2816
g81
I3
ssg82
g2810
sg75
(lp2817
S''
asbasbasbag68
(g84
g70
NtRp2818
(dp2819
g73
(dp2820
sg82
g2625
sg75
(lp2821
g68
(g89
g70
NtRp2822
(dp2823
g73
(dp2824
g93
g94
ssg82
g2818
sg75
(lp2825
S'REMOTE_ADDR'
p2826
asbag68
(g89
g70
NtRp2827
(dp2828
g73
(dp2829
g100
g101
ssg82
g2818
sg75
(lp2830
S':'
asbag68
(g89
g70
NtRp2831
(dp2832
g73
(dp2833
sg82
g2818
sg75
(lp2834
g68
(g69
g70
NtRp2835
(dp2836
g73
(dp2837
g81
I3
ssg82
g2831
sg75
(lp2838
g236
asbasbasbag68
(g84
g70
NtRp2839
(dp2840
g73
(dp2841
sg82
g2625
sg75
(lp2842
g68
(g89
g70
NtRp2843
(dp2844
g73
(dp2845
g93
g94
ssg82
g2839
sg75
(lp2846
S'REMOTE_PORT'
p2847
asbag68
(g89
g70
NtRp2848
(dp2849
g73
(dp2850
g100
g101
ssg82
g2839
sg75
(lp2851
S':'
asbag68
(g89
g70
NtRp2852
(dp2853
g73
(dp2854
sg82
g2839
sg75
(lp2855
g68
(g69
g70
NtRp2856
(dp2857
g73
(dp2858
g81
I3
ssg82
g2852
sg75
(lp2859
g1402
asbasbasbag68
(g84
g70
NtRp2860
(dp2861
g73
(dp2862
sg82
g2625
sg75
(lp2863
g68
(g89
g70
NtRp2864
(dp2865
g73
(dp2866
g93
g94
ssg82
g2860
sg75
(lp2867
S'REQUEST_METHOD'
p2868
asbag68
(g89
g70
NtRp2869
(dp2870
g73
(dp2871
g100
g101
ssg82
g2860
sg75
(lp2872
S':'
asbag68
(g89
g70
NtRp2873
(dp2874
g73
(dp2875
sg82
g2860
sg75
(lp2876
g68
(g69
g70
NtRp2877
(dp2878
g73
(dp2879
g81
I3
ssg82
g2873
sg75
(lp2880
g1424
asbasbasbag68
(g84
g70
NtRp2881
(dp2882
g73
(dp2883
sg82
g2625
sg75
(lp2884
g68
(g89
g70
NtRp2885
(dp2886
g73
(dp2887
g93
g94
ssg82
g2881
sg75
(lp2888
S'REQUEST_URI'
p2889
asbag68
(g89
g70
NtRp2890
(dp2891
g73
(dp2892
g100
g101
ssg82
g2881
sg75
(lp2893
S':'
asbag68
(g89
g70
NtRp2894
(dp2895
g73
(dp2896
sg82
g2881
sg75
(lp2897
g68
(g69
g70
NtRp2898
(dp2899
g73
(dp2900
g81
I3
ssg82
g2894
sg75
(lp2901
g1338
asbasbasbag68
(g84
g70
NtRp2902
(dp2903
g73
(dp2904
sg82
g2625
sg75
(lp2905
g68
(g89
g70
NtRp2906
(dp2907
g73
(dp2908
g93
g94
ssg82
g2902
sg75
(lp2909
S'SCRIPT_NAME'
p2910
asbag68
(g89
g70
NtRp2911
(dp2912
g73
(dp2913
g100
g101
ssg82
g2902
sg75
(lp2914
S':'
asbag68
(g89
g70
NtRp2915
(dp2916
g73
(dp2917
sg82
g2902
sg75
(lp2918
g68
(g69
g70
NtRp2919
(dp2920
g73
(dp2921
g81
I3
ssg82
g2915
sg75
(lp2922
S''
asbasbasbag68
(g84
g70
NtRp2923
(dp2924
g73
(dp2925
sg82
g2625
sg75
(lp2926
g68
(g89
g70
NtRp2927
(dp2928
g73
(dp2929
g93
g94
ssg82
g2923
sg75
(lp2930
S'SERVER_NAME'
p2931
asbag68
(g89
g70
NtRp2932
(dp2933
g73
(dp2934
g100
g101
ssg82
g2923
sg75
(lp2935
S':'
asbag68
(g89
g70
NtRp2936
(dp2937
g73
(dp2938
sg82
g2923
sg75
(lp2939
g68
(g69
g70
NtRp2940
(dp2941
g73
(dp2942
g81
I3
ssg82
g2936
sg75
(lp2943
g1488
asbasbasbag68
(g84
g70
NtRp2944
(dp2945
g73
(dp2946
sg82
g2625
sg75
(lp2947
g68
(g89
g70
NtRp2948
(dp2949
g73
(dp2950
g93
g94
ssg82
g2944
sg75
(lp2951
S'SERVER_PORT'
p2952
asbag68
(g89
g70
NtRp2953
(dp2954
g73
(dp2955
g100
g101
ssg82
g2944
sg75
(lp2956
S':'
asbag68
(g89
g70
NtRp2957
(dp2958
g73
(dp2959
sg82
g2944
sg75
(lp2960
g68
(g69
g70
NtRp2961
(dp2962
g73
(dp2963
g81
I3
ssg82
g2957
sg75
(lp2964
g1510
asbasbasbag68
(g84
g70
NtRp2965
(dp2966
g73
(dp2967
sg82
g2625
sg75
(lp2968
g68
(g89
g70
NtRp2969
(dp2970
g73
(dp2971
g93
g94
ssg82
g2965
sg75
(lp2972
S'SERVER_PROTOCOL'
p2973
asbag68
(g89
g70
NtRp2974
(dp2975
g73
(dp2976
g100
g101
ssg82
g2965
sg75
(lp2977
S':'
asbag68
(g89
g70
NtRp2978
(dp2979
g73
(dp2980
sg82
g2965
sg75
(lp2981
g68
(g69
g70
NtRp2982
(dp2983
g73
(dp2984
g81
I3
ssg82
g2978
sg75
(lp2985
g1532
asbasbasbag68
(g84
g70
NtRp2986
(dp2987
g73
(dp2988
sg82
g2625
sg75
(lp2989
g68
(g89
g70
NtRp2990
(dp2991
g73
(dp2992
g93
g94
ssg82
g2986
sg75
(lp2993
S'SERVER_SOFTWARE'
p2994
asbag68
(g89
g70
NtRp2995
(dp2996
g73
(dp2997
g100
g101
ssg82
g2986
sg75
(lp2998
S':'
asbag68
(g89
g70
NtRp2999
(dp3000
g73
(dp3001
sg82
g2986
sg75
(lp3002
g68
(g69
g70
NtRp3003
(dp3004
g73
(dp3005
g81
I3
ssg82
g2999
sg75
(lp3006
g1554
asbasbasbag68
(g84
g70
NtRp3007
(dp3008
g73
(dp3009
sg82
g2625
sg75
(lp3010
g68
(g89
g70
NtRp3011
(dp3012
g73
(dp3013
g93
g94
ssg82
g3007
sg75
(lp3014
S'wsgi.errors'
p3015
asbag68
(g89
g70
NtRp3016
(dp3017
g73
(dp3018
g100
g101
ssg82
g3007
sg75
(lp3019
S':'
asbag68
(g89
g70
NtRp3020
(dp3021
g73
(dp3022
sg82
g3007
sg75
(lp3023
g68
(g69
g70
NtRp3024
(dp3025
g73
(dp3026
g81
I3
ssg82
g3020
sg75
(lp3027
S"<open file '<stderr>', mode 'w' at 0x7f813e4ad270>"
p3028
asbasbasbag68
(g84
g70
NtRp3029
(dp3030
g73
(dp3031
sg82
g2625
sg75
(lp3032
g68
(g89
g70
NtRp3033
(dp3034
g73
(dp3035
g93
g94
ssg82
g3029
sg75
(lp3036
S'wsgi.file_wrapper'
p3037
asbag68
(g89
g70
NtRp3038
(dp3039
g73
(dp3040
g100
g101
ssg82
g3029
sg75
(lp3041
S':'
asbag68
(g89
g70
NtRp3042
(dp3043
g73
(dp3044
sg82
g3029
sg75
(lp3045
g68
(g69
g70
NtRp3046
(dp3047
g73
(dp3048
g81
I3
ssg82
g3042
sg75
(lp3049
S'<class wsgiref.util.FileWrapper at 0x259adb8>'
p3050
asbasbasbag68
(g84
g70
NtRp3051
(dp3052
g73
(dp3053
sg82
g2625
sg75
(lp3054
g68
(g89
g70
NtRp3055
(dp3056
g73
(dp3057
g93
g94
ssg82
g3051
sg75
(lp3058
S'wsgi.input'
p3059
asbag68
(g89
g70
NtRp3060
(dp3061
g73
(dp3062
g100
g101
ssg82
g3051
sg75
(lp3063
S':'
asbag68
(g89
g70
NtRp3064
(dp3065
g73
(dp3066
sg82
g3051
sg75
(lp3067
g68
(g69
g70
NtRp3068
(dp3069
g73
(dp3070
g81
I3
ssg82
g3064
sg75
(lp3071
S'<cStringIO.StringO object at 0x7f81180e5e30>'
p3072
asbasbasbag68
(g84
g70
NtRp3073
(dp3074
g73
(dp3075
sg82
g2625
sg75
(lp3076
g68
(g89
g70
NtRp3077
(dp3078
g73
(dp3079
g93
g94
ssg82
g3073
sg75
(lp3080
S'wsgi.multiprocess'
p3081
asbag68
(g89
g70
NtRp3082
(dp3083
g73
(dp3084
g100
g101
ssg82
g3073
sg75
(lp3085
S':'
asbag68
(g89
g70
NtRp3086
(dp3087
g73
(dp3088
sg82
g3073
sg75
(lp3089
g68
(g69
g70
NtRp3090
(dp3091
g73
(dp3092
g81
I3
ssg82
g3086
sg75
(lp3093
g111
asbasbasbag68
(g84
g70
NtRp3094
(dp3095
g73
(dp3096
sg82
g2625
sg75
(lp3097
g68
(g89
g70
NtRp3098
(dp3099
g73
(dp3100
g93
g94
ssg82
g3094
sg75
(lp3101
S'wsgi.multithread'
p3102
asbag68
(g89
g70
NtRp3103
(dp3104
g73
(dp3105
g100
g101
ssg82
g3094
sg75
(lp3106
S':'
asbag68
(g89
g70
NtRp3107
(dp3108
g73
(dp3109
sg82
g3094
sg75
(lp3110
g68
(g69
g70
NtRp3111
(dp3112
g73
(dp3113
g81
I3
ssg82
g3107
sg75
(lp3114
g1771
asbasbasbag68
(g84
g70
NtRp3115
(dp3116
g73
(dp3117
sg82
g2625
sg75
(lp3118
g68
(g89
g70
NtRp3119
(dp3120
g73
(dp3121
g93
g94
ssg82
g3115
sg75
(lp3122
S'wsgi.run_once'
p3123
asbag68
(g89
g70
NtRp3124
(dp3125
g73
(dp3126
g100
g101
ssg82
g3115
sg75
(lp3127
S':'
asbag68
(g89
g70
NtRp3128
(dp3129
g73
(dp3130
sg82
g3115
sg75
(lp3131
g68
(g69
g70
NtRp3132
(dp3133
g73
(dp3134
g81
I3
ssg82
g3128
sg75
(lp3135
g111
asbasbasbag68
(g84
g70
NtRp3136
(dp3137
g73
(dp3138
sg82
g2625
sg75
(lp3139
g68
(g89
g70
NtRp3140
(dp3141
g73
(dp3142
g93
g94
ssg82
g3136
sg75
(lp3143
S'wsgi.url_scheme'
p3144
asbag68
(g89
g70
NtRp3145
(dp3146
g73
(dp3147
g100
g101
ssg82
g3136
sg75
(lp3148
S':'
asbag68
(g89
g70
NtRp3149
(dp3150
g73
(dp3151
sg82
g3136
sg75
(lp3152
g68
(g69
g70
NtRp3153
(dp3154
g73
(dp3155
g81
I3
ssg82
g3149
sg75
(lp3156
g1814
asbasbasbag68
(g84
g70
NtRp3157
(dp3158
g73
(dp3159
sg82
g2625
sg75
(lp3160
g68
(g89
g70
NtRp3161
(dp3162
g73
(dp3163
g93
g94
ssg82
g3157
sg75
(lp3164
S'wsgi.version'
p3165
asbag68
(g89
g70
NtRp3166
(dp3167
g73
(dp3168
g100
g101
ssg82
g3157
sg75
(lp3169
S':'
asbag68
(g89
g70
NtRp3170
(dp3171
g73
(dp3172
sg82
g3157
sg75
(lp3173
g68
(g69
g70
NtRp3174
(dp3175
g73
(dp3176
g81
I3
ssg82
g3170
sg75
(lp3177
S'1'
asbasbasbasbasbasbasbasbasbasbasbasbasbsS'frames'
p3178
(lp3179
(dp3180
S'file'
p3181
S'/home/shipra/Desktop/Semester 1.2/ITWS-2/web2py/gluon/restricted.py'
p3182
sS'dump'
p3183
(dp3184
S'code'
p3185
S"'# -*- coding: utf-8 -*-\\n# this file is released ...m=crud())\\n\\nresponse._vars=response._caller(user)\\n'"
p3186
sS'layer'
p3187
S"'/home/shipra/Desktop/Semester 1.2/ITWS-2/web2py/applications/shipra/controllers/default.py'"
p3188
sS'global compile2'
p3189
S'<function compile2>'
p3190
sS'ccode'
p3191
S'undefined'
p3192
ssS'lnum'
p3193
I211
sS'lines'
p3194
(dp3195
I206
S"    environment['__name__'] = '__restricted__'"
p3196
sI207
S'    try:'
p3197
sI208
S'        if isinstance(code, types.CodeType):'
p3198
sI209
S'            ccode = code'
p3199
sI210
S'        else:'
p3200
sI211
S'            ccode = compile2(code, layer)'
p3201
sI212
S'        exec ccode in environment'
p3202
sI213
S'    except HTTP:'
p3203
sI214
S'        raise'
p3204
sI215
S'    except RestrictedError:'
p3205
ssS'call'
p3206
S"(code='# -*- coding: utf-8 -*-\\n# this file is released ...m=crud())\\n\\nresponse._vars=response._caller(user)\\n', environment={'A': <class 'gluon.html.A'>, 'Auth': <class 'gluon.tools.Auth'>, 'B': <class 'gluon.html.B'>, 'BEAUTIFY': <class 'gluon.html.BEAUTIFY'>, 'BODY': <class 'gluon.html.BODY'>, 'BR': <class 'gluon.html.BR'>, 'BUTTON': <class 'gluon.html.BUTTON'>, 'CAT': <class 'gluon.html.CAT'>, 'CENTER': <class 'gluon.html.CENTER'>, 'CLEANUP': <class 'gluon.validators.CLEANUP'>, ...}, layer='/home/shipra/Desktop/Semester 1.2/ITWS-2/web2py/applications/shipra/controllers/default.py')"
p3207
sS'func'
p3208
S'restricted'
p3209
sa(dp3210
g3181
S'/home/shipra/Desktop/Semester 1.2/ITWS-2/web2py/gluon/restricted.py'
p3211
sg3183
(dp3212
S'builtincompile'
p3213
S'<built-in function compile>'
p3214
sS'code'
p3215
S"'# -*- coding: utf-8 -*-\\n# this file is released ...m=crud())\\n\\nresponse._vars=response._caller(user)\\n'"
p3216
sS'code.rstrip'
p3217
S'<built-in method rstrip of str object>'
p3218
sS').replace'
p3219
g3192
sS'layer'
p3220
S"'/home/shipra/Desktop/Semester 1.2/ITWS-2/web2py/applications/shipra/controllers/default.py'"
p3221
ssg3193
I194
sg3194
(dp3222
I192
S"    The +'\\n' is necessary else compile fails when code ends in a comment."
p3223
sI193
S'    """'
p3224
sI194
S"    return compile(code.rstrip().replace('\\r\\n', '\\n') + '\\n', layer, 'exec')"
p3225
sI195
S''
sI196
S''
sI197
S"def restricted(code, environment=None, layer='Unknown'):"
p3226
sI198
S'    """'
p3227
sI189
S''
sI190
S'def compile2(code, layer):'
p3228
sI191
S'    """'
p3229
ssg3206
S"(code='# -*- coding: utf-8 -*-\\n# this file is released ...m=crud())\\n\\nresponse._vars=response._caller(user)\\n', layer='/home/shipra/Desktop/Semester 1.2/ITWS-2/web2py/applications/shipra/controllers/default.py')"
p3230
sg3208
S'compile2'
p3231
sasS'pyver'
p3232
S'Python 2.7.3: /usr/bin/python'
p3233
sS'session'
p3234
g68
(g69
g70
NtRp3235
(dp3236
g73
(dp3237
sg75
(lp3238
g68
(g77
g70
NtRp3239
(dp3240
g73
(dp3241
g81
I5
ssg82
Nsg75
(lp3242
sbasbsS'etype'
p3243
S"<type 'exceptions.SyntaxError'>"
p3244
sS'date'
p3245
S'Mon Apr  1 23:10:00 2013'
p3246
sS'response'
p3247
g68
(g69
g70
NtRp3248
(dp3249
g73
(dp3250
sg75
(lp3251
g68
(g77
g70
NtRp3252
(dp3253
g73
(dp3254
g81
I5
ssg82
Nsg75
(lp3255
g68
(g84
g70
NtRp3256
(dp3257
g73
(dp3258
sg82
g3252
sg75
(lp3259
g68
(g89
g70
NtRp3260
(dp3261
g73
(dp3262
g93
g94
ssg82
g3256
sg75
(lp3263
g179
asbag68
(g89
g70
NtRp3264
(dp3265
g73
(dp3266
g100
g101
ssg82
g3256
sg75
(lp3267
S':'
asbag68
(g89
g70
NtRp3268
(dp3269
g73
(dp3270
sg82
g3256
sg75
(lp3271
g68
(g69
g70
NtRp3272
(dp3273
g73
(dp3274
g81
I5
ssg82
g3268
sg75
(lp3275
S'<cStringIO.StringO object at 0x7f8118062848>'
p3276
asbasbasbag68
(g84
g70
NtRp3277
(dp3278
g73
(dp3279
sg82
g3252
sg75
(lp3280
g68
(g89
g70
NtRp3281
(dp3282
g73
(dp3283
g93
g94
ssg82
g3277
sg75
(lp3284
g267
asbag68
(g89
g70
NtRp3285
(dp3286
g73
(dp3287
g100
g101
ssg82
g3277
sg75
(lp3288
S':'
asbag68
(g89
g70
NtRp3289
(dp3290
g73
(dp3291
sg82
g3277
sg75
(lp3292
g68
(g69
g70
NtRp3293
(dp3294
g73
(dp3295
g81
I5
ssg82
g3289
sg75
(lp3296
g68
(g77
g70
NtRp3297
(dp3298
g73
(dp3299
g81
I4
ssg82
Nsg75
(lp3300
g68
(g84
g70
NtRp3301
(dp3302
g73
(dp3303
sg82
g3297
sg75
(lp3304
g68
(g89
g70
NtRp3305
(dp3306
g73
(dp3307
g93
g94
ssg82
g3301
sg75
(lp3308
S'session_id_shipra'
p3309
asbag68
(g89
g70
NtRp3310
(dp3311
g73
(dp3312
g100
g101
ssg82
g3301
sg75
(lp3313
S':'
asbag68
(g89
g70
NtRp3314
(dp3315
g73
(dp3316
sg82
g3301
sg75
(lp3317
g68
(g69
g70
NtRp3318
(dp3319
g73
(dp3320
g81
I4
ssg82
g3314
sg75
(lp3321
S'127.0.0.1-3255323b-f239-4741-9069-c4849195e04f'
p3322
ag68
(g77
g70
NtRp3323
(dp3324
g73
(dp3325
g81
I3
ssg82
Nsg75
(lp3326
g68
(g84
g70
NtRp3327
(dp3328
g73
(dp3329
sg82
g3323
sg75
(lp3330
g68
(g89
g70
NtRp3331
(dp3332
g73
(dp3333
g93
g94
ssg82
g3327
sg75
(lp3334
g318
asbag68
(g89
g70
NtRp3335
(dp3336
g73
(dp3337
g100
g101
ssg82
g3327
sg75
(lp3338
S':'
asbag68
(g89
g70
NtRp3339
(dp3340
g73
(dp3341
sg82
g3327
sg75
(lp3342
g68
(g69
g70
NtRp3343
(dp3344
g73
(dp3345
g81
I3
ssg82
g3339
sg75
(lp3346
S''
asbasbasbag68
(g84
g70
NtRp3347
(dp3348
g73
(dp3349
sg82
g3323
sg75
(lp3350
g68
(g89
g70
NtRp3351
(dp3352
g73
(dp3353
g93
g94
ssg82
g3347
sg75
(lp3354
g339
asbag68
(g89
g70
NtRp3355
(dp3356
g73
(dp3357
g100
g101
ssg82
g3347
sg75
(lp3358
S':'
asbag68
(g89
g70
NtRp3359
(dp3360
g73
(dp3361
sg82
g3347
sg75
(lp3362
g68
(g69
g70
NtRp3363
(dp3364
g73
(dp3365
g81
I3
ssg82
g3359
sg75
(lp3366
S''
asbasbasbag68
(g84
g70
NtRp3367
(dp3368
g73
(dp3369
sg82
g3323
sg75
(lp3370
g68
(g89
g70
NtRp3371
(dp3372
g73
(dp3373
g93
g94
ssg82
g3367
sg75
(lp3374
g360
asbag68
(g89
g70
NtRp3375
(dp3376
g73
(dp3377
g100
g101
ssg82
g3367
sg75
(lp3378
S':'
asbag68
(g89
g70
NtRp3379
(dp3380
g73
(dp3381
sg82
g3367
sg75
(lp3382
g68
(g69
g70
NtRp3383
(dp3384
g73
(dp3385
g81
I3
ssg82
g3379
sg75
(lp3386
S''
asbasbasbag68
(g84
g70
NtRp3387
(dp3388
g73
(dp3389
sg82
g3323
sg75
(lp3390
g68
(g89
g70
NtRp3391
(dp3392
g73
(dp3393
g93
g94
ssg82
g3387
sg75
(lp3394
g381
asbag68
(g89
g70
NtRp3395
(dp3396
g73
(dp3397
g100
g101
ssg82
g3387
sg75
(lp3398
S':'
asbag68
(g89
g70
NtRp3399
(dp3400
g73
(dp3401
sg82
g3387
sg75
(lp3402
g68
(g69
g70
NtRp3403
(dp3404
g73
(dp3405
g81
I3
ssg82
g3399
sg75
(lp3406
S''
asbasbasbag68
(g84
g70
NtRp3407
(dp3408
g73
(dp3409
sg82
g3323
sg75
(lp3410
g68
(g89
g70
NtRp3411
(dp3412
g73
(dp3413
g93
g94
ssg82
g3407
sg75
(lp3414
g402
asbag68
(g89
g70
NtRp3415
(dp3416
g73
(dp3417
g100
g101
ssg82
g3407
sg75
(lp3418
S':'
asbag68
(g89
g70
NtRp3419
(dp3420
g73
(dp3421
sg82
g3407
sg75
(lp3422
g68
(g69
g70
NtRp3423
(dp3424
g73
(dp3425
g81
I3
ssg82
g3419
sg75
(lp3426
S''
asbasbasbag68
(g84
g70
NtRp3427
(dp3428
g73
(dp3429
sg82
g3323
sg75
(lp3430
g68
(g89
g70
NtRp3431
(dp3432
g73
(dp3433
g93
g94
ssg82
g3427
sg75
(lp3434
g423
asbag68
(g89
g70
NtRp3435
(dp3436
g73
(dp3437
g100
g101
ssg82
g3427
sg75
(lp3438
S':'
asbag68
(g89
g70
NtRp3439
(dp3440
g73
(dp3441
sg82
g3427
sg75
(lp3442
g68
(g69
g70
NtRp3443
(dp3444
g73
(dp3445
g81
I3
ssg82
g3439
sg75
(lp3446
S'/'
asbasbasbag68
(g84
g70
NtRp3447
(dp3448
g73
(dp3449
sg82
g3323
sg75
(lp3450
g68
(g89
g70
NtRp3451
(dp3452
g73
(dp3453
g93
g94
ssg82
g3447
sg75
(lp3454
g444
asbag68
(g89
g70
NtRp3455
(dp3456
g73
(dp3457
g100
g101
ssg82
g3447
sg75
(lp3458
S':'
asbag68
(g89
g70
NtRp3459
(dp3460
g73
(dp3461
sg82
g3447
sg75
(lp3462
g68
(g69
g70
NtRp3463
(dp3464
g73
(dp3465
g81
I3
ssg82
g3459
sg75
(lp3466
S''
asbasbasbag68
(g84
g70
NtRp3467
(dp3468
g73
(dp3469
sg82
g3323
sg75
(lp3470
g68
(g89
g70
NtRp3471
(dp3472
g73
(dp3473
g93
g94
ssg82
g3467
sg75
(lp3474
g465
asbag68
(g89
g70
NtRp3475
(dp3476
g73
(dp3477
g100
g101
ssg82
g3467
sg75
(lp3478
S':'
asbag68
(g89
g70
NtRp3479
(dp3480
g73
(dp3481
sg82
g3467
sg75
(lp3482
g68
(g69
g70
NtRp3483
(dp3484
g73
(dp3485
g81
I3
ssg82
g3479
sg75
(lp3486
S''
asbasbasbasbasbasbasbasbasbasbasbag68
(g84
g70
NtRp3487
(dp3488
g73
(dp3489
sg82
g3252
sg75
(lp3490
g68
(g89
g70
NtRp3491
(dp3492
g73
(dp3493
g93
g94
ssg82
g3487
sg75
(lp3494
S'delimiters'
p3495
asbag68
(g89
g70
NtRp3496
(dp3497
g73
(dp3498
g100
g101
ssg82
g3487
sg75
(lp3499
S':'
asbag68
(g89
g70
NtRp3500
(dp3501
g73
(dp3502
sg82
g3487
sg75
(lp3503
g68
(g69
g70
NtRp3504
(dp3505
g73
(dp3506
g81
I5
ssg82
g3500
sg75
(lp3507
g68
(g77
g70
NtRp3508
(dp3509
g73
(dp3510
g81
I4
ssg82
Nsg75
(lp3511
g68
(g84
g70
NtRp3512
(dp3513
g73
(dp3514
sg82
g3508
sg75
(lp3515
g68
(g89
g70
NtRp3516
(dp3517
g73
(dp3518
sg82
g3512
sg75
(lp3519
g68
(g69
g70
NtRp3520
(dp3521
g73
(dp3522
g81
I4
ssg82
g3516
sg75
(lp3523
S'{{'
p3524
asbasbasbag68
(g84
g70
NtRp3525
(dp3526
g73
(dp3527
sg82
g3508
sg75
(lp3528
g68
(g89
g70
NtRp3529
(dp3530
g73
(dp3531
sg82
g3525
sg75
(lp3532
g68
(g69
g70
NtRp3533
(dp3534
g73
(dp3535
g81
I4
ssg82
g3529
sg75
(lp3536
S'}}'
p3537
asbasbasbasbasbasbasbag68
(g84
g70
NtRp3538
(dp3539
g73
(dp3540
sg82
g3252
sg75
(lp3541
g68
(g89
g70
NtRp3542
(dp3543
g73
(dp3544
g93
g94
ssg82
g3538
sg75
(lp3545
S'files'
p3546
asbag68
(g89
g70
NtRp3547
(dp3548
g73
(dp3549
g100
g101
ssg82
g3538
sg75
(lp3550
S':'
asbag68
(g89
g70
NtRp3551
(dp3552
g73
(dp3553
sg82
g3538
sg75
(lp3554
g68
(g69
g70
NtRp3555
(dp3556
g73
(dp3557
g81
I5
ssg82
g3551
sg75
(lp3558
g68
(g77
g70
NtRp3559
(dp3560
g73
(dp3561
g81
I4
ssg82
Nsg75
(lp3562
sbasbasbasbag68
(g84
g70
NtRp3563
(dp3564
g73
(dp3565
sg82
g3252
sg75
(lp3566
g68
(g89
g70
NtRp3567
(dp3568
g73
(dp3569
g93
g94
ssg82
g3563
sg75
(lp3570
S'flash'
p3571
asbag68
(g89
g70
NtRp3572
(dp3573
g73
(dp3574
g100
g101
ssg82
g3563
sg75
(lp3575
S':'
asbag68
(g89
g70
NtRp3576
(dp3577
g73
(dp3578
sg82
g3563
sg75
(lp3579
g68
(g69
g70
NtRp3580
(dp3581
g73
(dp3582
g81
I5
ssg82
g3576
sg75
(lp3583
S''
asbasbasbag68
(g84
g70
NtRp3584
(dp3585
g73
(dp3586
sg82
g3252
sg75
(lp3587
g68
(g89
g70
NtRp3588
(dp3589
g73
(dp3590
g93
g94
ssg82
g3584
sg75
(lp3591
S'generic_patterns'
p3592
asbag68
(g89
g70
NtRp3593
(dp3594
g73
(dp3595
g100
g101
ssg82
g3584
sg75
(lp3596
S':'
asbag68
(g89
g70
NtRp3597
(dp3598
g73
(dp3599
sg82
g3584
sg75
(lp3600
g68
(g69
g70
NtRp3601
(dp3602
g73
(dp3603
g81
I5
ssg82
g3597
sg75
(lp3604
g68
(g77
g70
NtRp3605
(dp3606
g73
(dp3607
g81
I4
ssg82
Nsg75
(lp3608
g68
(g84
g70
NtRp3609
(dp3610
g73
(dp3611
sg82
g3605
sg75
(lp3612
g68
(g89
g70
NtRp3613
(dp3614
g73
(dp3615
sg82
g3609
sg75
(lp3616
g68
(g69
g70
NtRp3617
(dp3618
g73
(dp3619
g81
I4
ssg82
g3613
sg75
(lp3620
S'*'
asbasbasbasbasbasbasbag68
(g84
g70
NtRp3621
(dp3622
g73
(dp3623
sg82
g3252
sg75
(lp3624
g68
(g89
g70
NtRp3625
(dp3626
g73
(dp3627
g93
g94
ssg82
g3621
sg75
(lp3628
S'google_analytics_id'
p3629
asbag68
(g89
g70
NtRp3630
(dp3631
g73
(dp3632
g100
g101
ssg82
g3621
sg75
(lp3633
S':'
asbag68
(g89
g70
NtRp3634
(dp3635
g73
(dp3636
sg82
g3621
sg75
(lp3637
g68
(g69
g70
NtRp3638
(dp3639
g73
(dp3640
g81
I5
ssg82
g3634
sg75
(lp3641
S'None'
p3642
asbasbasbag68
(g84
g70
NtRp3643
(dp3644
g73
(dp3645
sg82
g3252
sg75
(lp3646
g68
(g89
g70
NtRp3647
(dp3648
g73
(dp3649
g93
g94
ssg82
g3643
sg75
(lp3650
S'headers'
p3651
asbag68
(g89
g70
NtRp3652
(dp3653
g73
(dp3654
g100
g101
ssg82
g3643
sg75
(lp3655
S':'
asbag68
(g89
g70
NtRp3656
(dp3657
g73
(dp3658
sg82
g3643
sg75
(lp3659
g68
(g69
g70
NtRp3660
(dp3661
g73
(dp3662
g81
I5
ssg82
g3656
sg75
(lp3663
g68
(g77
g70
NtRp3664
(dp3665
g73
(dp3666
g81
I4
ssg82
Nsg75
(lp3667
g68
(g84
g70
NtRp3668
(dp3669
g73
(dp3670
sg82
g3664
sg75
(lp3671
g68
(g89
g70
NtRp3672
(dp3673
g73
(dp3674
g93
g94
ssg82
g3668
sg75
(lp3675
S'X-Powered-By'
p3676
asbag68
(g89
g70
NtRp3677
(dp3678
g73
(dp3679
g100
g101
ssg82
g3668
sg75
(lp3680
S':'
asbag68
(g89
g70
NtRp3681
(dp3682
g73
(dp3683
sg82
g3668
sg75
(lp3684
g68
(g69
g70
NtRp3685
(dp3686
g73
(dp3687
g81
I4
ssg82
g3681
sg75
(lp3688
S'web2py'
p3689
asbasbasbasbasbasbasbag68
(g84
g70
NtRp3690
(dp3691
g73
(dp3692
sg82
g3252
sg75
(lp3693
g68
(g89
g70
NtRp3694
(dp3695
g73
(dp3696
g93
g94
ssg82
g3690
sg75
(lp3697
S'logo'
p3698
asbag68
(g89
g70
NtRp3699
(dp3700
g73
(dp3701
g100
g101
ssg82
g3690
sg75
(lp3702
S':'
asbag68
(g89
g70
NtRp3703
(dp3704
g73
(dp3705
sg82
g3690
sg75
(lp3706
g68
(g69
g70
NtRp3707
(dp3708
g73
(dp3709
g81
I5
ssg82
g3703
sg75
(lp3710
g68
(cgluon.html
A
p3711
g70
NtRp3712
(dp3713
g73
(dp3714
S'_class'
p3715
S'brand'
p3716
sS'_href'
p3717
S'http://www.web2py.com/'
p3718
ssg82
Nsg75
(lp3719
g68
(cgluon.html
B
p3720
g70
NtRp3721
(dp3722
g73
(dp3723
sg82
g3712
sg75
(lp3724
S'web'
p3725
ag68
(cgluon.html
SPAN
p3726
g70
NtRp3727
(dp3728
g73
(dp3729
sg82
g3721
sg75
(lp3730
I2
asbaS'py'
p3731
asbacgluon.html
XML_unpickle
p3732
(S's\r\x00\x00\x00&trade;&nbsp;'
tRp3733
asbasbasbasbag68
(g84
g70
NtRp3734
(dp3735
g73
(dp3736
sg82
g3252
sg75
(lp3737
g68
(g89
g70
NtRp3738
(dp3739
g73
(dp3740
g93
g94
ssg82
g3734
sg75
(lp3741
S'menu'
p3742
asbag68
(g89
g70
NtRp3743
(dp3744
g73
(dp3745
g100
g101
ssg82
g3734
sg75
(lp3746
S':'
asbag68
(g89
g70
NtRp3747
(dp3748
g73
(dp3749
sg82
g3734
sg75
(lp3750
g68
(g69
g70
NtRp3751
(dp3752
g73
(dp3753
g81
I5
ssg82
g3747
sg75
(lp3754
g68
(g77
g70
NtRp3755
(dp3756
g73
(dp3757
g81
I4
ssg82
Nsg75
(lp3758
g68
(g84
g70
NtRp3759
(dp3760
g73
(dp3761
sg82
g3755
sg75
(lp3762
g68
(g89
g70
NtRp3763
(dp3764
g73
(dp3765
sg82
g3759
sg75
(lp3766
g68
(g69
g70
NtRp3767
(dp3768
g73
(dp3769
g81
I4
ssg82
g3763
sg75
(lp3770
g68
(g77
g70
NtRp3771
(dp3772
g73
(dp3773
g81
I3
ssg82
Nsg75
(lp3774
g68
(g84
g70
NtRp3775
(dp3776
g73
(dp3777
sg82
g3771
sg75
(lp3778
g68
(g89
g70
NtRp3779
(dp3780
g73
(dp3781
sg82
g3775
sg75
(lp3782
g68
(g69
g70
NtRp3783
(dp3784
g73
(dp3785
g81
I3
ssg82
g3779
sg75
(lp3786
cgluon.languages
lazyT_unpickle
p3787
(S's\x04\x00\x00\x00Home'
tRp3788
asbasbasbag68
(g84
g70
NtRp3789
(dp3790
g73
(dp3791
sg82
g3771
sg75
(lp3792
g68
(g89
g70
NtRp3793
(dp3794
g73
(dp3795
sg82
g3789
sg75
(lp3796
g68
(g69
g70
NtRp3797
(dp3798
g73
(dp3799
g81
I3
ssg82
g3793
sg75
(lp3800
g111
asbasbasbag68
(g84
g70
NtRp3801
(dp3802
g73
(dp3803
sg82
g3771
sg75
(lp3804
g68
(g89
g70
NtRp3805
(dp3806
g73
(dp3807
sg82
g3801
sg75
(lp3808
g68
(g69
g70
NtRp3809
(dp3810
g73
(dp3811
g81
I3
ssg82
g3805
sg75
(lp3812
S'/shipra/default/index'
p3813
asbasbasbag68
(g84
g70
NtRp3814
(dp3815
g73
(dp3816
sg82
g3771
sg75
(lp3817
g68
(g89
g70
NtRp3818
(dp3819
g73
(dp3820
sg82
g3814
sg75
(lp3821
g68
(g69
g70
NtRp3822
(dp3823
g73
(dp3824
g81
I3
ssg82
g3818
sg75
(lp3825
g68
(g77
g70
NtRp3826
(dp3827
g73
(dp3828
g81
I2
ssg82
Nsg75
(lp3829
sbasbasbasbasbasbasbasbag68
(g84
g70
NtRp3830
(dp3831
g73
(dp3832
sg82
g3755
sg75
(lp3833
g68
(g89
g70
NtRp3834
(dp3835
g73
(dp3836
sg82
g3830
sg75
(lp3837
g68
(g69
g70
NtRp3838
(dp3839
g73
(dp3840
g81
I4
ssg82
g3834
sg75
(lp3841
g68
(g77
g70
NtRp3842
(dp3843
g73
(dp3844
g81
I3
ssg82
Nsg75
(lp3845
g68
(g84
g70
NtRp3846
(dp3847
g73
(dp3848
sg82
g3842
sg75
(lp3849
g68
(g89
g70
NtRp3850
(dp3851
g73
(dp3852
sg82
g3846
sg75
(lp3853
g68
(g69
g70
NtRp3854
(dp3855
g73
(dp3856
g81
I3
ssg82
g3850
sg75
(lp3857
g68
(g3726
g70
NtRp3858
(dp3859
g73
(dp3860
g3715
S'highlighted'
p3861
ssg82
Nsg75
(lp3862
g3689
asbasbasbasbag68
(g84
g70
NtRp3863
(dp3864
g73
(dp3865
sg82
g3842
sg75
(lp3866
g68
(g89
g70
NtRp3867
(dp3868
g73
(dp3869
sg82
g3863
sg75
(lp3870
g68
(g69
g70
NtRp3871
(dp3872
g73
(dp3873
g81
I3
ssg82
g3867
sg75
(lp3874
g111
asbasbasbag68
(g84
g70
NtRp3875
(dp3876
g73
(dp3877
sg82
g3842
sg75
(lp3878
g68
(g89
g70
NtRp3879
(dp3880
g73
(dp3881
sg82
g3875
sg75
(lp3882
g68
(g69
g70
NtRp3883
(dp3884
g73
(dp3885
g81
I3
ssg82
g3879
sg75
(lp3886
S'http://web2py.com'
p3887
asbasbasbag68
(g84
g70
NtRp3888
(dp3889
g73
(dp3890
sg82
g3842
sg75
(lp3891
g68
(g89
g70
NtRp3892
(dp3893
g73
(dp3894
sg82
g3888
sg75
(lp3895
g68
(g69
g70
NtRp3896
(dp3897
g73
(dp3898
g81
I3
ssg82
g3892
sg75
(lp3899
g68
(g77
g70
NtRp3900
(dp3901
g73
(dp3902
g81
I2
ssg82
Nsg75
(lp3903
g68
(g84
g70
NtRp3904
(dp3905
g73
(dp3906
sg82
g3900
sg75
(lp3907
g68
(g89
g70
NtRp3908
(dp3909
g73
(dp3910
sg82
g3904
sg75
(lp3911
g68
(g69
g70
NtRp3912
(dp3913
g73
(dp3914
g81
I2
ssg82
g3908
sg75
(lp3915
g68
(g77
g70
NtRp3916
(dp3917
g73
(dp3918
g81
I1
ssg82
Nsg75
(lp3919
g68
(g84
g70
NtRp3920
(dp3921
g73
(dp3922
sg82
g3916
sg75
(lp3923
g68
(g89
g70
NtRp3924
(dp3925
g73
(dp3926
sg82
g3920
sg75
(lp3927
g68
(g69
g70
NtRp3928
(dp3929
g73
(dp3930
g81
I1
ssg82
g3924
sg75
(lp3931
g3787
(S's\x08\x00\x00\x00My Sites'
tRp3932
asbasbasbag68
(g84
g70
NtRp3933
(dp3934
g73
(dp3935
sg82
g3916
sg75
(lp3936
g68
(g89
g70
NtRp3937
(dp3938
g73
(dp3939
sg82
g3933
sg75
(lp3940
g68
(g69
g70
NtRp3941
(dp3942
g73
(dp3943
g81
I1
ssg82
g3937
sg75
(lp3944
I00
asbasbasbag68
(g84
g70
NtRp3945
(dp3946
g73
(dp3947
sg82
g3916
sg75
(lp3948
g68
(g89
g70
NtRp3949
(dp3950
g73
(dp3951
sg82
g3945
sg75
(lp3952
g68
(g69
g70
NtRp3953
(dp3954
g73
(dp3955
g81
I1
ssg82
g3949
sg75
(lp3956
S'/admin/default/site'
p3957
asbasbasbasbasbasbasbag68
(g84
g70
NtRp3958
(dp3959
g73
(dp3960
sg82
g3900
sg75
(lp3961
g68
(g89
g70
NtRp3962
(dp3963
g73
(dp3964
sg82
g3958
sg75
(lp3965
g68
(g69
g70
NtRp3966
(dp3967
g73
(dp3968
g81
I2
ssg82
g3962
sg75
(lp3969
g68
(g77
g70
NtRp3970
(dp3971
g73
(dp3972
g81
I1
ssg82
Nsg75
(lp3973
g68
(g84
g70
NtRp3974
(dp3975
g73
(dp3976
sg82
g3970
sg75
(lp3977
g68
(g89
g70
NtRp3978
(dp3979
g73
(dp3980
sg82
g3974
sg75
(lp3981
g68
(g69
g70
NtRp3982
(dp3983
g73
(dp3984
g81
I1
ssg82
g3978
sg75
(lp3985
g3787
(S's\x08\x00\x00\x00This App'
tRp3986
asbasbasbag68
(g84
g70
NtRp3987
(dp3988
g73
(dp3989
sg82
g3970
sg75
(lp3990
g68
(g89
g70
NtRp3991
(dp3992
g73
(dp3993
sg82
g3987
sg75
(lp3994
g68
(g69
g70
NtRp3995
(dp3996
g73
(dp3997
g81
I1
ssg82
g3991
sg75
(lp3998
I00
asbasbasbag68
(g84
g70
NtRp3999
(dp4000
g73
(dp4001
sg82
g3970
sg75
(lp4002
g68
(g89
g70
NtRp4003
(dp4004
g73
(dp4005
sg82
g3999
sg75
(lp4006
g68
(g69
g70
NtRp4007
(dp4008
g73
(dp4009
g81
I1
ssg82
g4003
sg75
(lp4010
S'/admin/default/design/shipra'
p4011
asbasbasbag68
(g84
g70
NtRp4012
(dp4013
g73
(dp4014
sg82
g3970
sg75
(lp4015
g68
(g89
g70
NtRp4016
(dp4017
g73
(dp4018
sg82
g4012
sg75
(lp4019
g68
(g69
g70
NtRp4020
(dp4021
g73
(dp4022
g81
I1
ssg82
g4016
sg75
(lp4023
(lp4024
(g3787
(S's\n\x00\x00\x00Controller'
tRp4025
I00
S'/admin/default/edit/shipra/controllers/default.py'
tp4026
a(g3787
(S's\x04\x00\x00\x00View'
tRp4027
I00
S'/admin/default/edit/shipra/views/default/user.html'
tp4028
a(g3787
(S's\x06\x00\x00\x00Layout'
tRp4029
I00
S'/admin/default/edit/shipra/views/layout.html'
tp4030
a(g3787
(S's\n\x00\x00\x00Stylesheet'
tRp4031
I00
S'/admin/default/edit/shipra/static/css/web2py.css'
tp4032
a(g3787
(S's\x08\x00\x00\x00DB Model'
tRp4033
I00
S'/admin/default/edit/shipra/models/db.py'
tp4034
a(g3787
(S's\n\x00\x00\x00Menu Model'
tRp4035
I00
S'/admin/default/edit/shipra/models/menu.py'
tp4036
a(g3787
(S's\x08\x00\x00\x00Database'
tRp4037
I00
S'/shipra/appadmin/index'
tp4038
a(g3787
(S's\x06\x00\x00\x00Errors'
tRp4039
I00
S'/admin/default/errors/shipra'
tp4040
a(g3787
(S's\x05\x00\x00\x00About'
tRp4041
I00
S'/admin/default/about/shipra'
tp4042
aasbasbasbasbasbasbasbag68
(g84
g70
NtRp4043
(dp4044
g73
(dp4045
sg82
g3900
sg75
(lp4046
g68
(g89
g70
NtRp4047
(dp4048
g73
(dp4049
sg82
g4043
sg75
(lp4050
g68
(g69
g70
NtRp4051
(dp4052
g73
(dp4053
g81
I2
ssg82
g4047
sg75
(lp4054
g68
(g77
g70
NtRp4055
(dp4056
g73
(dp4057
g81
I1
ssg82
Nsg75
(lp4058
g68
(g84
g70
NtRp4059
(dp4060
g73
(dp4061
sg82
g4055
sg75
(lp4062
g68
(g89
g70
NtRp4063
(dp4064
g73
(dp4065
sg82
g4059
sg75
(lp4066
g68
(g69
g70
NtRp4067
(dp4068
g73
(dp4069
g81
I1
ssg82
g4063
sg75
(lp4070
S'web2py.com'
p4071
asbasbasbag68
(g84
g70
NtRp4072
(dp4073
g73
(dp4074
sg82
g4055
sg75
(lp4075
g68
(g89
g70
NtRp4076
(dp4077
g73
(dp4078
sg82
g4072
sg75
(lp4079
g68
(g69
g70
NtRp4080
(dp4081
g73
(dp4082
g81
I1
ssg82
g4076
sg75
(lp4083
I00
asbasbasbag68
(g84
g70
NtRp4084
(dp4085
g73
(dp4086
sg82
g4055
sg75
(lp4087
g68
(g89
g70
NtRp4088
(dp4089
g73
(dp4090
sg82
g4084
sg75
(lp4091
g68
(g69
g70
NtRp4092
(dp4093
g73
(dp4094
g81
I1
ssg82
g4088
sg75
(lp4095
S'http://www.web2py.com'
p4096
asbasbasbag68
(g84
g70
NtRp4097
(dp4098
g73
(dp4099
sg82
g4055
sg75
(lp4100
g68
(g89
g70
NtRp4101
(dp4102
g73
(dp4103
sg82
g4097
sg75
(lp4104
g68
(g69
g70
NtRp4105
(dp4106
g73
(dp4107
g81
I1
ssg82
g4101
sg75
(lp4108
(lp4109
(g3787
(S's\x08\x00\x00\x00Download'
tRp4110
I00
S'http://www.web2py.com/examples/default/download'
p4111
tp4112
a(g3787
(S's\x07\x00\x00\x00Support'
tRp4113
I00
S'http://www.web2py.com/examples/default/support'
p4114
tp4115
a(g3787
(S's\x04\x00\x00\x00Demo'
tRp4116
I00
S'http://web2py.com/demo_admin'
p4117
tp4118
a(g3787
(S's\x0e\x00\x00\x00Quick Examples'
tRp4119
I00
S'http://web2py.com/examples/default/examples'
p4120
tp4121
a(g3787
(S's\x03\x00\x00\x00FAQ'
tRp4122
I00
S'http://web2py.com/AlterEgo'
p4123
tp4124
a(g3787
(S's\x06\x00\x00\x00Videos'
tRp4125
I00
S'http://www.web2py.com/examples/default/videos/'
p4126
tp4127
a(g3787
(S's\x11\x00\x00\x00Free Applications'
tRp4128
I00
S'http://web2py.com/appliances'
p4129
tp4130
a(g3787
(S's\x07\x00\x00\x00Plugins'
tRp4131
I00
S'http://web2py.com/plugins'
p4132
tp4133
a(g3787
(S's\x07\x00\x00\x00Layouts'
tRp4134
I00
S'http://web2py.com/layouts'
p4135
tp4136
a(g3787
(S's\x07\x00\x00\x00Recipes'
tRp4137
I00
S'http://web2pyslices.com/'
p4138
tp4139
a(g3787
(S's\x08\x00\x00\x00Semantic'
tRp4140
I00
S'http://web2py.com/semantic'
p4141
tp4142
aasbasbasbasbasbasbasbag68
(g84
g70
NtRp4143
(dp4144
g73
(dp4145
sg82
g3900
sg75
(lp4146
g68
(g89
g70
NtRp4147
(dp4148
g73
(dp4149
sg82
g4143
sg75
(lp4150
g68
(g69
g70
NtRp4151
(dp4152
g73
(dp4153
g81
I2
ssg82
g4147
sg75
(lp4154
g68
(g77
g70
NtRp4155
(dp4156
g73
(dp4157
g81
I1
ssg82
Nsg75
(lp4158
g68
(g84
g70
NtRp4159
(dp4160
g73
(dp4161
sg82
g4155
sg75
(lp4162
g68
(g89
g70
NtRp4163
(dp4164
g73
(dp4165
sg82
g4159
sg75
(lp4166
g68
(g69
g70
NtRp4167
(dp4168
g73
(dp4169
g81
I1
ssg82
g4163
sg75
(lp4170
g3787
(S's\r\x00\x00\x00Documentation'
tRp4171
asbasbasbag68
(g84
g70
NtRp4172
(dp4173
g73
(dp4174
sg82
g4155
sg75
(lp4175
g68
(g89
g70
NtRp4176
(dp4177
g73
(dp4178
sg82
g4172
sg75
(lp4179
g68
(g69
g70
NtRp4180
(dp4181
g73
(dp4182
g81
I1
ssg82
g4176
sg75
(lp4183
I00
asbasbasbag68
(g84
g70
NtRp4184
(dp4185
g73
(dp4186
sg82
g4155
sg75
(lp4187
g68
(g89
g70
NtRp4188
(dp4189
g73
(dp4190
sg82
g4184
sg75
(lp4191
g68
(g69
g70
NtRp4192
(dp4193
g73
(dp4194
g81
I1
ssg82
g4188
sg75
(lp4195
S'http://www.web2py.com/book'
p4196
asbasbasbag68
(g84
g70
NtRp4197
(dp4198
g73
(dp4199
sg82
g4155
sg75
(lp4200
g68
(g89
g70
NtRp4201
(dp4202
g73
(dp4203
sg82
g4197
sg75
(lp4204
g68
(g69
g70
NtRp4205
(dp4206
g73
(dp4207
g81
I1
ssg82
g4201
sg75
(lp4208
(lp4209
(g3787
(S's\x07\x00\x00\x00Preface'
tRp4210
I00
S'http://www.web2py.com/book/default/chapter/00'
p4211
tp4212
a(g3787
(S's\x0c\x00\x00\x00Introduction'
tRp4213
I00
S'http://www.web2py.com/book/default/chapter/01'
p4214
tp4215
a(g3787
(S's\x06\x00\x00\x00Python'
tRp4216
I00
S'http://www.web2py.com/book/default/chapter/02'
p4217
tp4218
a(g3787
(S's\x08\x00\x00\x00Overview'
tRp4219
I00
S'http://www.web2py.com/book/default/chapter/03'
p4220
tp4221
a(g3787
(S's\x08\x00\x00\x00The Core'
tRp4222
I00
S'http://www.web2py.com/book/default/chapter/04'
p4223
tp4224
a(g3787
(S's\t\x00\x00\x00The Views'
tRp4225
I00
S'http://www.web2py.com/book/default/chapter/05'
p4226
tp4227
a(g3787
(S's\x08\x00\x00\x00Database'
tRp4228
I00
S'http://www.web2py.com/book/default/chapter/06'
p4229
tp4230
a(g3787
(S's\x14\x00\x00\x00Forms and Validators'
tRp4231
I00
S'http://www.web2py.com/book/default/chapter/07'
p4232
tp4233
a(g3787
(S's\r\x00\x00\x00Email and SMS'
tRp4234
I00
S'http://www.web2py.com/book/default/chapter/08'
p4235
tp4236
a(g3787
(S's\x0e\x00\x00\x00Access Control'
tRp4237
I00
S'http://www.web2py.com/book/default/chapter/09'
p4238
tp4239
a(g3787
(S's\x08\x00\x00\x00Services'
tRp4240
I00
S'http://www.web2py.com/book/default/chapter/10'
p4241
tp4242
a(g3787
(S's\x0c\x00\x00\x00Ajax Recipes'
tRp4243
I00
S'http://www.web2py.com/book/default/chapter/11'
p4244
tp4245
a(g3787
(S's\x16\x00\x00\x00Components and Plugins'
tRp4246
I00
S'http://www.web2py.com/book/default/chapter/12'
p4247
tp4248
a(g3787
(S's\x12\x00\x00\x00Deployment Recipes'
tRp4249
I00
S'http://www.web2py.com/book/default/chapter/13'
p4250
tp4251
a(g3787
(S's\r\x00\x00\x00Other Recipes'
tRp4252
I00
S'http://www.web2py.com/book/default/chapter/14'
p4253
tp4254
a(g3787
(S's\r\x00\x00\x00Buy this book'
tRp4255
I00
S'http://stores.lulu.com/web2py'
p4256
tp4257
aasbasbasbasbasbasbasbag68
(g84
g70
NtRp4258
(dp4259
g73
(dp4260
sg82
g3900
sg75
(lp4261
g68
(g89
g70
NtRp4262
(dp4263
g73
(dp4264
sg82
g4258
sg75
(lp4265
g68
(g69
g70
NtRp4266
(dp4267
g73
(dp4268
g81
I2
ssg82
g4262
sg75
(lp4269
g68
(g77
g70
NtRp4270
(dp4271
g73
(dp4272
g81
I1
ssg82
Nsg75
(lp4273
g68
(g84
g70
NtRp4274
(dp4275
g73
(dp4276
sg82
g4270
sg75
(lp4277
g68
(g89
g70
NtRp4278
(dp4279
g73
(dp4280
sg82
g4274
sg75
(lp4281
g68
(g69
g70
NtRp4282
(dp4283
g73
(dp4284
g81
I1
ssg82
g4278
sg75
(lp4285
g3787
(S's\t\x00\x00\x00Community'
tRp4286
asbasbasbag68
(g84
g70
NtRp4287
(dp4288
g73
(dp4289
sg82
g4270
sg75
(lp4290
g68
(g89
g70
NtRp4291
(dp4292
g73
(dp4293
sg82
g4287
sg75
(lp4294
g68
(g69
g70
NtRp4295
(dp4296
g73
(dp4297
g81
I1
ssg82
g4291
sg75
(lp4298
I00
asbasbasbag68
(g84
g70
NtRp4299
(dp4300
g73
(dp4301
sg82
g4270
sg75
(lp4302
g68
(g89
g70
NtRp4303
(dp4304
g73
(dp4305
sg82
g4299
sg75
(lp4306
g68
(g69
g70
NtRp4307
(dp4308
g73
(dp4309
g81
I1
ssg82
g4303
sg75
(lp4310
Nasbasbasbag68
(g84
g70
NtRp4311
(dp4312
g73
(dp4313
sg82
g4270
sg75
(lp4314
g68
(g89
g70
NtRp4315
(dp4316
g73
(dp4317
sg82
g4311
sg75
(lp4318
g68
(g69
g70
NtRp4319
(dp4320
g73
(dp4321
g81
I1
ssg82
g4315
sg75
(lp4322
(lp4323
(g3787
(S's\x06\x00\x00\x00Groups'
tRp4324
I00
S'http://www.web2py.com/examples/default/usergroups'
p4325
tp4326
a(g3787
(S's\x07\x00\x00\x00Twitter'
tRp4327
I00
S'http://twitter.com/web2py'
p4328
tp4329
a(g3787
(S's\t\x00\x00\x00Live Chat'
tRp4330
I00
S'http://webchat.freenode.net/?channels=web2py'
p4331
tp4332
aasbasbasbasbasbasbasbag68
(g84
g70
NtRp4333
(dp4334
g73
(dp4335
sg82
g3900
sg75
(lp4336
g68
(g89
g70
NtRp4337
(dp4338
g73
(dp4339
sg82
g4333
sg75
(lp4340
g68
(g69
g70
NtRp4341
(dp4342
g73
(dp4343
g81
I2
ssg82
g4337
sg75
(lp4344
g68
(g77
g70
NtRp4345
(dp4346
g73
(dp4347
g81
I1
ssg82
Nsg75
(lp4348
g68
(g84
g70
NtRp4349
(dp4350
g73
(dp4351
sg82
g4345
sg75
(lp4352
g68
(g89
g70
NtRp4353
(dp4354
g73
(dp4355
sg82
g4349
sg75
(lp4356
g68
(g69
g70
NtRp4357
(dp4358
g73
(dp4359
g81
I1
ssg82
g4353
sg75
(lp4360
g3787
(S's\x07\x00\x00\x00Plugins'
tRp4361
asbasbasbag68
(g84
g70
NtRp4362
(dp4363
g73
(dp4364
sg82
g4345
sg75
(lp4365
g68
(g89
g70
NtRp4366
(dp4367
g73
(dp4368
sg82
g4362
sg75
(lp4369
g68
(g69
g70
NtRp4370
(dp4371
g73
(dp4372
g81
I1
ssg82
g4366
sg75
(lp4373
I00
asbasbasbag68
(g84
g70
NtRp4374
(dp4375
g73
(dp4376
sg82
g4345
sg75
(lp4377
g68
(g89
g70
NtRp4378
(dp4379
g73
(dp4380
sg82
g4374
sg75
(lp4381
g68
(g69
g70
NtRp4382
(dp4383
g73
(dp4384
g81
I1
ssg82
g4378
sg75
(lp4385
Nasbasbasbag68
(g84
g70
NtRp4386
(dp4387
g73
(dp4388
sg82
g4345
sg75
(lp4389
g68
(g89
g70
NtRp4390
(dp4391
g73
(dp4392
sg82
g4386
sg75
(lp4393
g68
(g69
g70
NtRp4394
(dp4395
g73
(dp4396
g81
I1
ssg82
g4390
sg75
(lp4397
(lp4398
(S'plugin_wiki'
p4399
I00
S'http://web2py.com/examples/default/download'
p4400
tp4401
a(g3787
(S's\r\x00\x00\x00Other Plugins'
tRp4402
I00
g4132
tp4403
a(g3787
(S's\x0e\x00\x00\x00Layout Plugins'
tRp4404
I00
g4135
tp4405
aasbasbasbasbasbasbasbasbasbasbasbasbasbasbasbasbasbasbasbag68
(g84
g70
NtRp4406
(dp4407
g73
(dp4408
sg82
g3252
sg75
(lp4409
g68
(g89
g70
NtRp4410
(dp4411
g73
(dp4412
g93
g94
ssg82
g4406
sg75
(lp4413
S'meta'
p4414
asbag68
(g89
g70
NtRp4415
(dp4416
g73
(dp4417
g100
g101
ssg82
g4406
sg75
(lp4418
S':'
asbag68
(g89
g70
NtRp4419
(dp4420
g73
(dp4421
sg82
g4406
sg75
(lp4422
g68
(g69
g70
NtRp4423
(dp4424
g73
(dp4425
g81
I5
ssg82
g4419
sg75
(lp4426
g68
(g77
g70
NtRp4427
(dp4428
g73
(dp4429
g81
I4
ssg82
Nsg75
(lp4430
g68
(g84
g70
NtRp4431
(dp4432
g73
(dp4433
sg82
g4427
sg75
(lp4434
g68
(g89
g70
NtRp4435
(dp4436
g73
(dp4437
g93
g94
ssg82
g4431
sg75
(lp4438
S'author'
p4439
asbag68
(g89
g70
NtRp4440
(dp4441
g73
(dp4442
g100
g101
ssg82
g4431
sg75
(lp4443
S':'
asbag68
(g89
g70
NtRp4444
(dp4445
g73
(dp4446
sg82
g4431
sg75
(lp4447
g68
(g69
g70
NtRp4448
(dp4449
g73
(dp4450
g81
I4
ssg82
g4444
sg75
(lp4451
S'Your Name <you@example.com>'
p4452
asbasbasbag68
(g84
g70
NtRp4453
(dp4454
g73
(dp4455
sg82
g4427
sg75
(lp4456
g68
(g89
g70
NtRp4457
(dp4458
g73
(dp4459
g93
g94
ssg82
g4453
sg75
(lp4460
S'description'
p4461
asbag68
(g89
g70
NtRp4462
(dp4463
g73
(dp4464
g100
g101
ssg82
g4453
sg75
(lp4465
S':'
asbag68
(g89
g70
NtRp4466
(dp4467
g73
(dp4468
sg82
g4453
sg75
(lp4469
g68
(g69
g70
NtRp4470
(dp4471
g73
(dp4472
g81
I4
ssg82
g4466
sg75
(lp4473
S'a cool new app'
p4474
asbasbasbag68
(g84
g70
NtRp4475
(dp4476
g73
(dp4477
sg82
g4427
sg75
(lp4478
g68
(g89
g70
NtRp4479
(dp4480
g73
(dp4481
g93
g94
ssg82
g4475
sg75
(lp4482
S'generator'
p4483
asbag68
(g89
g70
NtRp4484
(dp4485
g73
(dp4486
g100
g101
ssg82
g4475
sg75
(lp4487
S':'
asbag68
(g89
g70
NtRp4488
(dp4489
g73
(dp4490
sg82
g4475
sg75
(lp4491
g68
(g69
g70
NtRp4492
(dp4493
g73
(dp4494
g81
I4
ssg82
g4488
sg75
(lp4495
S'Web2py Web Framework'
p4496
asbasbasbag68
(g84
g70
NtRp4497
(dp4498
g73
(dp4499
sg82
g4427
sg75
(lp4500
g68
(g89
g70
NtRp4501
(dp4502
g73
(dp4503
g93
g94
ssg82
g4497
sg75
(lp4504
S'keywords'
p4505
asbag68
(g89
g70
NtRp4506
(dp4507
g73
(dp4508
g100
g101
ssg82
g4497
sg75
(lp4509
S':'
asbag68
(g89
g70
NtRp4510
(dp4511
g73
(dp4512
sg82
g4497
sg75
(lp4513
g68
(g69
g70
NtRp4514
(dp4515
g73
(dp4516
g81
I4
ssg82
g4510
sg75
(lp4517
S'web2py, python, framework'
p4518
asbasbasbasbasbasbasbag68
(g84
g70
NtRp4519
(dp4520
g73
(dp4521
sg82
g3252
sg75
(lp4522
g68
(g89
g70
NtRp4523
(dp4524
g73
(dp4525
g93
g94
ssg82
g4519
sg75
(lp4526
S'models_to_run'
p4527
asbag68
(g89
g70
NtRp4528
(dp4529
g73
(dp4530
g100
g101
ssg82
g4519
sg75
(lp4531
S':'
asbag68
(g89
g70
NtRp4532
(dp4533
g73
(dp4534
sg82
g4519
sg75
(lp4535
g68
(g69
g70
NtRp4536
(dp4537
g73
(dp4538
g81
I5
ssg82
g4532
sg75
(lp4539
g68
(g77
g70
NtRp4540
(dp4541
g73
(dp4542
g81
I4
ssg82
Nsg75
(lp4543
g68
(g84
g70
NtRp4544
(dp4545
g73
(dp4546
sg82
g4540
sg75
(lp4547
g68
(g89
g70
NtRp4548
(dp4549
g73
(dp4550
sg82
g4544
sg75
(lp4551
g68
(g69
g70
NtRp4552
(dp4553
g73
(dp4554
g81
I4
ssg82
g4548
sg75
(lp4555
S'^\\w+\\.py$'
p4556
asbasbasbag68
(g84
g70
NtRp4557
(dp4558
g73
(dp4559
sg82
g4540
sg75
(lp4560
g68
(g89
g70
NtRp4561
(dp4562
g73
(dp4563
sg82
g4557
sg75
(lp4564
g68
(g69
g70
NtRp4565
(dp4566
g73
(dp4567
g81
I4
ssg82
g4561
sg75
(lp4568
S'^default/\\w+\\.py$'
p4569
asbasbasbag68
(g84
g70
NtRp4570
(dp4571
g73
(dp4572
sg82
g4540
sg75
(lp4573
g68
(g89
g70
NtRp4574
(dp4575
g73
(dp4576
sg82
g4570
sg75
(lp4577
g68
(g69
g70
NtRp4578
(dp4579
g73
(dp4580
g81
I4
ssg82
g4574
sg75
(lp4581
S'^default/user/\\w+\\.py$'
p4582
asbasbasbasbasbasbasbag68
(g84
g70
NtRp4583
(dp4584
g73
(dp4585
sg82
g3252
sg75
(lp4586
g68
(g89
g70
NtRp4587
(dp4588
g73
(dp4589
g93
g94
ssg82
g4583
sg75
(lp4590
S'postprocessing'
p4591
asbag68
(g89
g70
NtRp4592
(dp4593
g73
(dp4594
g100
g101
ssg82
g4583
sg75
(lp4595
S':'
asbag68
(g89
g70
NtRp4596
(dp4597
g73
(dp4598
sg82
g4583
sg75
(lp4599
g68
(g69
g70
NtRp4600
(dp4601
g73
(dp4602
g81
I5
ssg82
g4596
sg75
(lp4603
g68
(g77
g70
NtRp4604
(dp4605
g73
(dp4606
g81
I4
ssg82
Nsg75
(lp4607
sbasbasbasbag68
(g84
g70
NtRp4608
(dp4609
g73
(dp4610
sg82
g3252
sg75
(lp4611
g68
(g89
g70
NtRp4612
(dp4613
g73
(dp4614
g93
g94
ssg82
g4608
sg75
(lp4615
S'session_cookie_expires'
p4616
asbag68
(g89
g70
NtRp4617
(dp4618
g73
(dp4619
g100
g101
ssg82
g4608
sg75
(lp4620
S':'
asbag68
(g89
g70
NtRp4621
(dp4622
g73
(dp4623
sg82
g4608
sg75
(lp4624
g68
(g69
g70
NtRp4625
(dp4626
g73
(dp4627
g81
I5
ssg82
g4621
sg75
(lp4628
S'None'
p4629
asbasbasbag68
(g84
g70
NtRp4630
(dp4631
g73
(dp4632
sg82
g3252
sg75
(lp4633
g68
(g89
g70
NtRp4634
(dp4635
g73
(dp4636
g93
g94
ssg82
g4630
sg75
(lp4637
S'session_data_name'
p4638
asbag68
(g89
g70
NtRp4639
(dp4640
g73
(dp4641
g100
g101
ssg82
g4630
sg75
(lp4642
S':'
asbag68
(g89
g70
NtRp4643
(dp4644
g73
(dp4645
sg82
g4630
sg75
(lp4646
g68
(g69
g70
NtRp4647
(dp4648
g73
(dp4649
g81
I5
ssg82
g4643
sg75
(lp4650
S'session_data_shipra'
p4651
asbasbasbag68
(g84
g70
NtRp4652
(dp4653
g73
(dp4654
sg82
g3252
sg75
(lp4655
g68
(g89
g70
NtRp4656
(dp4657
g73
(dp4658
g93
g94
ssg82
g4652
sg75
(lp4659
S'session_filename'
p4660
asbag68
(g89
g70
NtRp4661
(dp4662
g73
(dp4663
g100
g101
ssg82
g4652
sg75
(lp4664
S':'
asbag68
(g89
g70
NtRp4665
(dp4666
g73
(dp4667
sg82
g4652
sg75
(lp4668
g68
(g69
g70
NtRp4669
(dp4670
g73
(dp4671
g81
I5
ssg82
g4665
sg75
(lp4672
S'/home/shipra/Desktop/Semester 1.2/ITWS-2/web2py/applications/shipra/sessions/127.0.0.1-3255323b-f239-4741-9069-c4849195e04f'
p4673
asbasbasbag68
(g84
g70
NtRp4674
(dp4675
g73
(dp4676
sg82
g3252
sg75
(lp4677
g68
(g89
g70
NtRp4678
(dp4679
g73
(dp4680
g93
g94
ssg82
g4674
sg75
(lp4681
S'session_id'
p4682
asbag68
(g89
g70
NtRp4683
(dp4684
g73
(dp4685
g100
g101
ssg82
g4674
sg75
(lp4686
S':'
asbag68
(g89
g70
NtRp4687
(dp4688
g73
(dp4689
sg82
g4674
sg75
(lp4690
g68
(g69
g70
NtRp4691
(dp4692
g73
(dp4693
g81
I5
ssg82
g4687
sg75
(lp4694
g3322
asbasbasbag68
(g84
g70
NtRp4695
(dp4696
g73
(dp4697
sg82
g3252
sg75
(lp4698
g68
(g89
g70
NtRp4699
(dp4700
g73
(dp4701
g93
g94
ssg82
g4695
sg75
(lp4702
S'session_id_name'
p4703
asbag68
(g89
g70
NtRp4704
(dp4705
g73
(dp4706
g100
g101
ssg82
g4695
sg75
(lp4707
S':'
asbag68
(g89
g70
NtRp4708
(dp4709
g73
(dp4710
sg82
g4695
sg75
(lp4711
g68
(g69
g70
NtRp4712
(dp4713
g73
(dp4714
g81
I5
ssg82
g4708
sg75
(lp4715
g3309
asbasbasbag68
(g84
g70
NtRp4716
(dp4717
g73
(dp4718
sg82
g3252
sg75
(lp4719
g68
(g89
g70
NtRp4720
(dp4721
g73
(dp4722
g93
g94
ssg82
g4716
sg75
(lp4723
S'session_new'
p4724
asbag68
(g89
g70
NtRp4725
(dp4726
g73
(dp4727
g100
g101
ssg82
g4716
sg75
(lp4728
S':'
asbag68
(g89
g70
NtRp4729
(dp4730
g73
(dp4731
sg82
g4716
sg75
(lp4732
g68
(g69
g70
NtRp4733
(dp4734
g73
(dp4735
g81
I5
ssg82
g4729
sg75
(lp4736
g1771
asbasbasbag68
(g84
g70
NtRp4737
(dp4738
g73
(dp4739
sg82
g3252
sg75
(lp4740
g68
(g89
g70
NtRp4741
(dp4742
g73
(dp4743
g93
g94
ssg82
g4737
sg75
(lp4744
S'session_storage_type'
p4745
asbag68
(g89
g70
NtRp4746
(dp4747
g73
(dp4748
g100
g101
ssg82
g4737
sg75
(lp4749
S':'
asbag68
(g89
g70
NtRp4750
(dp4751
g73
(dp4752
sg82
g4737
sg75
(lp4753
g68
(g69
g70
NtRp4754
(dp4755
g73
(dp4756
g81
I5
ssg82
g4750
sg75
(lp4757
g3181
asbasbasbag68
(g84
g70
NtRp4758
(dp4759
g73
(dp4760
sg82
g3252
sg75
(lp4761
g68
(g89
g70
NtRp4762
(dp4763
g73
(dp4764
g93
g94
ssg82
g4758
sg75
(lp4765
S'status'
p4766
asbag68
(g89
g70
NtRp4767
(dp4768
g73
(dp4769
g100
g101
ssg82
g4758
sg75
(lp4770
S':'
asbag68
(g89
g70
NtRp4771
(dp4772
g73
(dp4773
sg82
g4758
sg75
(lp4774
g68
(g69
g70
NtRp4775
(dp4776
g73
(dp4777
g81
I5
ssg82
g4771
sg75
(lp4778
S'200'
p4779
asbasbasbag68
(g84
g70
NtRp4780
(dp4781
g73
(dp4782
sg82
g3252
sg75
(lp4783
g68
(g89
g70
NtRp4784
(dp4785
g73
(dp4786
g93
g94
ssg82
g4780
sg75
(lp4787
S'subtitle'
p4788
asbag68
(g89
g70
NtRp4789
(dp4790
g73
(dp4791
g100
g101
ssg82
g4780
sg75
(lp4792
S':'
asbag68
(g89
g70
NtRp4793
(dp4794
g73
(dp4795
sg82
g4780
sg75
(lp4796
g68
(g69
g70
NtRp4797
(dp4798
g73
(dp4799
g81
I5
ssg82
g4793
sg75
(lp4800
g3787
(S's\r\x00\x00\x00customize me!'
tRp4801
asbasbasbag68
(g84
g70
NtRp4802
(dp4803
g73
(dp4804
sg82
g3252
sg75
(lp4805
g68
(g89
g70
NtRp4806
(dp4807
g73
(dp4808
g93
g94
ssg82
g4802
sg75
(lp4809
S'title'
p4810
asbag68
(g89
g70
NtRp4811
(dp4812
g73
(dp4813
g100
g101
ssg82
g4802
sg75
(lp4814
S':'
asbag68
(g89
g70
NtRp4815
(dp4816
g73
(dp4817
sg82
g4802
sg75
(lp4818
g68
(g69
g70
NtRp4819
(dp4820
g73
(dp4821
g81
I5
ssg82
g4815
sg75
(lp4822
S'Shipra'
p4823
asbasbasbag68
(g84
g70
NtRp4824
(dp4825
g73
(dp4826
sg82
g3252
sg75
(lp4827
g68
(g89
g70
NtRp4828
(dp4829
g73
(dp4830
g93
g94
ssg82
g4824
sg75
(lp4831
S'view'
p4832
asbag68
(g89
g70
NtRp4833
(dp4834
g73
(dp4835
g100
g101
ssg82
g4824
sg75
(lp4836
S':'
asbag68
(g89
g70
NtRp4837
(dp4838
g73
(dp4839
sg82
g4824
sg75
(lp4840
g68
(g69
g70
NtRp4841
(dp4842
g73
(dp4843
g81
I5
ssg82
g4837
sg75
(lp4844
S'default/user.html'
p4845
asbasbasbasbasbsS'locals'
p4846
(dp4847
g4
S"'/home/shipra/Desktop/Semester 1.2/ITWS-2/web2py/applications/shipra/controllers/default.py'"
p4848
sg6
S"'# -*- coding: utf-8 -*-\\n# this file is released ...m=crud())\\n\\nresponse._vars=response._caller(user)\\n'"
p4849
sssS'traceback'
p4850
S'Traceback (most recent call last):\n  File "/home/shipra/Desktop/Semester 1.2/ITWS-2/web2py/gluon/restricted.py", line 211, in restricted\n    ccode = compile2(code, layer)\n  File "/home/shipra/Desktop/Semester 1.2/ITWS-2/web2py/gluon/restricted.py", line 194, in compile2\n    return compile(code.rstrip().replace(\'\\r\\n\', \'\\n\') + \'\\n\', layer, \'exec\')\n  File "/home/shipra/Desktop/Semester 1.2/ITWS-2/web2py/applications/shipra/controllers/default.py", line 74\n    def print():\n            ^\nSyntaxError: invalid syntax\n'
p4851
s.