(dp1
S'output'
p2
S"<type 'exceptions.TypeError'> list indices must be integers, not str"
p3
sS'layer'
p4
S'/home/shipra/Desktop/Semester 1.2/ITWS-2/web2py/applications/shipra/views/default/prin.html'
p5
sS'code'
p6
S'response.write(\'<!--[if HTML5]><![endif]-->\\n<!DOCTYPE html>\\n<!-- paulirish.com/2008/conditional-stylesheets-vs-css-hacks-answer-neither/ -->\\n<!--[if lt IE 7]><html class="ie ie6 ie-lte9 ie-lte8 ie-lte7 no-js" lang="\', escape=False)\nresponse.write(T.accepted_language or \'en\')\nresponse.write(\'"> <![endif]-->\\n<!--[if IE 7]><html class="ie ie7 ie-lte9 ie-lte8 ie-lte7 no-js" lang="\', escape=False)\nresponse.write(T.accepted_language or \'en\')\nresponse.write(\'"> <![endif]-->\\n<!--[if IE 8]><html class="ie ie8 ie-lte9 ie-lte8 no-js" lang="\', escape=False)\nresponse.write(T.accepted_language or \'en\')\nresponse.write(\'"> <![endif]-->\\n<!--[if IE 9]><html class="ie9 ie-lte9 no-js" lang="\', escape=False)\nresponse.write(T.accepted_language or \'en\')\nresponse.write(\'"> <![endif]-->\\n<!--[if (gt IE 9)|!(IE)]><!--> <html class="no-js" lang="\', escape=False)\nresponse.write(T.accepted_language or \'en\')\nresponse.write(\'"> <!--<![endif]-->\\n<head>\\n<title>\', escape=False)\nresponse.write(response.title or request.application)\nresponse.write(\'</title>\\n  <!--[if !HTML5]>\\n      <meta http-equiv="X-UA-Compatible" content="IE=edge\', escape=False)\nresponse.write(not request.is_local and \',chrome=1\' or \'\')\nresponse.write(\'">\\n  <![endif]-->\\n  <!-- www.phpied.com/conditional-comments-block-downloads/ -->\\n  <!-- Always force latest IE rendering engine\\n       (even in intranet) & Chrome Frame\\n       Remove this if you use the .htaccess -->\\n\\t   \\n  <meta charset="utf-8" />\\n\\n  <!-- http://dev.w3.org/html5/markup/meta.name.html -->\\n  <meta name="application-name" content="\', escape=False)\nresponse.write(request.application)\nresponse.write(\'" />\\n\\n  <!-- Speaking of Google, don\\\'t forget to set your site up:\\n       http://google.com/webmasters -->\\n  <meta name="google-site-verification" content="" />\\n\\n  <!--  Mobile Viewport Fix\\n        j.mp/mobileviewport & davidbcalhoun.com/2010/viewport-metatag\\n        device-width: Occupy full width of the screen in its current orientation\\n        initial-scale = 1.0 retains dimensions instead of zooming out if page height > device height\\n        user-scalable = yes allows the user to zoom in -->\\n  <meta name="viewport" content="width=device-width, initial-scale=1.0" />\\n\\n  <link rel="shortcut icon" href="\', escape=False)\nresponse.write(URL(\'static\',\'images/favicon.ico\'))\nresponse.write(\'" type="image/x-icon">\\n  <link rel="apple-touch-icon" href="\', escape=False)\nresponse.write(URL(\'static\',\'images/favicon.png\'))\nresponse.write(\'">\\n\\n  <!-- All JavaScript at the bottom, except for Modernizr which enables\\n       HTML5 elements & feature detects -->\\n  <script src="\', escape=False)\nresponse.write(URL(\'static\',\'js/modernizr.custom.js\'))\nresponse.write(\'"></script>\\n\\n  <!-- include stylesheets -->\\n  \', escape=False)\nresponse.files.append(URL(\'static\',\'css/web2py.css\'))\nresponse.files.append(URL(\'static\',\'css/bootstrap.min.css\'))\nresponse.files.append(URL(\'static\',\'css/bootstrap-responsive.min.css\'))\nresponse.files.append(URL(\'static\',\'css/web2py_bootstrap.css\'))\nresponse.write(\'\\n\\n  \', escape=False)\nresponse.write(\'<script type="text/javascript"><!--\\n    // These variables are used by the web2py_ajax_init function in web2py_ajax.js (which is loaded below).\\n    var w2p_ajax_confirm_message = "\', escape=False)\nresponse.write(T(\'Are you sure you want to delete this object?\'))\nresponse.write(\'";\\n    var w2p_ajax_date_format = "\', escape=False)\nresponse.write(T(\'%Y-%m-%d\'))\nresponse.write(\'";\\n    var w2p_ajax_datetime_format = "\', escape=False)\nresponse.write(T(\'%Y-%m-%d %H:%M:%S\'))\nresponse.write(\'";\\n    var ajax_error_500 = \\\'\', escape=False)\nresponse.write(XML(T(\'An error occured, please %s the page\') % A(T(\'reload\'), _href=URL(args=request.args, vars=request.vars))))\nresponse.write("\'\\n    //--></script>\\n", escape=False)\nresponse.files.insert(0,URL(\'static\',\'js/jquery.js\'))\nresponse.files.insert(1,URL(\'static\',\'css/calendar.css\'))\nresponse.files.insert(2,URL(\'static\',\'js/calendar.js\'))\nresponse.files.insert(3,URL(\'static\',\'js/web2py.js\'))\nresponse.include_meta()\nresponse.include_files()\nresponse.write(\'\\n\', escape=False)\nresponse.write(\'\\n\\n  \', escape=False)\n# using sidebars need to know what sidebar you want to use\nleft_sidebar_enabled = globals().get(\'left_sidebar_enabled\',False)\nright_sidebar_enabled = globals().get(\'right_sidebar_enabled\',False)\nmiddle_columns = {0:\'span12\',1:\'span9\',2:\'span6\'}[\n(left_sidebar_enabled and 1 or 0)+(right_sidebar_enabled and 1 or 0)]\nresponse.write(\'\\n\\n  <!-- uncomment here to load jquery-ui\\n       <link rel="stylesheet" href="http://ajax.googleapis.com/ajax/libs/jqueryui/1.8.16/themes/base/jquery-ui.css" type="text/css" media="all" />\\n       <script src="http://ajax.googleapis.com/ajax/libs/jqueryui/1.8.16/jquery-ui.min.js" type="text/javascript"></script>\\n       uncomment to load jquery-ui //-->\\n  <noscript><link href="\', escape=False)\nresponse.write(URL(\'static\', \'css/web2py_bootstrap_nojs.css\'))\nresponse.write(\'" rel="stylesheet" type="text/css" /></noscript>\\n  \', escape=False)\nresponse.write(\'\\n</head>\\n\\n<body>\\n  <!-- Navbar ================================================== -->\\n  <div class="navbar navbar-inverse navbar-fixed-top">\\n    <div class="flash">\', escape=False)\nresponse.write(response.flash or \'\')\nresponse.write(\'</div>\\n    <div class="navbar-inner">\\n      <div class="container">\\n        <!-- the next tag is necessary for bootstrap menus, do not remove -->\\n        <button type="button" class="btn btn-navbar" data-toggle="collapse" data-target=".nav-collapse">\\n          <span class="icon-bar"></span>\\n          <span class="icon-bar"></span>\\n          <span class="icon-bar"></span>\\n        </button>\\n\\t\', escape=False)\nresponse.write(response.logo or \'\')\nresponse.write(\'\\n        <ul id="navbar" class="nav pull-right">\', escape=False)\nresponse.write(\'auth\' in globals() and auth.navbar(mode="dropdown") or \'\')\nresponse.write(\'</ul>\\n        <div class="nav-collapse">\\n          \', escape=False)\nis_mobile=request.user_agent().is_mobile\nresponse.write(\'\\n          \', escape=False)\nif response.menu:\n    response.write(\'\\n          \', escape=False)\n    response.write(MENU(response.menu, _class=\'mobile-menu nav\' if is_mobile else \'nav\',mobile=is_mobile,li_class=\'dropdown\',ul_class=\'dropdown-menu\'))\n    response.write(\'\\n          \', escape=False)\n    pass\nresponse.write(\'\\n        </div><!--/.nav-collapse -->\\n      </div>\\n    </div>\\n  </div><!--/top navbar -->\\n\\n  <div class="container">\\n    <!-- Masthead ================================================== -->\\n    <header class="mastheader row" id="header">\\n        <div class="span12">\\n            <div class="page-header">\\n                <h1>\\n                    \', escape=False)\nresponse.write(response.title or request.application)\nresponse.write(\'\\n                    <small>\', escape=False)\nresponse.write(response.subtitle or \'\')\nresponse.write(\'</small>\\n                </h1>\\n            </div>\\n        </div>\\n    </header>\\n\\n    <section id="main" class="main row">\\n        \', escape=False)\nif left_sidebar_enabled:\n    response.write(\'\\n        <div class="span3 left-sidebar">\\n            \', escape=False)\n    response.write(\'\\n            <h3>Left Sidebar</h3>\\n            <p></p>\\n            \', escape=False)\n    response.write(\'\\n        </div>\\n        \', escape=False)\n    pass\nresponse.write(\'\\n\\n        <div class="\', escape=False)\nresponse.write(middle_columns)\nresponse.write(\'">\\n            \', escape=False)\nresponse.write(\'\\n            \', escape=False)\nresponse.write(\'\\n<p><h3>PERSONAL</h3></p><br/>\\n<ol>\\n\\t<li> Gender : \', escape=False)\nresponse.write(pers[\'Gender\'])\nresponse.write(\'</li>\\n</ol>\\n\\n\', escape=False)\nresponse.write(\'\\n            \', escape=False)\nresponse.write(\'\\n        </div>\\n\\n        \', escape=False)\nif right_sidebar_enabled:\n    response.write(\'\\n        <div class="span3">\\n            \', escape=False)\n    response.write(\'\\n            <h3>Right Sidebar</h3>\\n            <p></p>\\n            \', escape=False)\n    response.write(\'\\n        </div>\\n        \', escape=False)\n    pass\nresponse.write(\'\\n    </section><!--/main-->\\n\\n    <!-- Footer ================================================== -->\\n    <div class="row">\\n        <footer class="footer span12" id="footer">\\n            <div class="footer-content">\\n                \', escape=False)\nresponse.write(\' <!-- this is default footer -->\\n                <div class="copyright pull-left">\', escape=False)\nresponse.write(T(\'Copyright\'))\nresponse.write(\' &#169; \', escape=False)\nresponse.write(request.now.year)\nresponse.write(\'</div>\\n                <div id="poweredBy" class="pull-right">\\n                    \', escape=False)\nresponse.write(T(\'Powered by\'))\nresponse.write(\'\\n                    <a href="http://www.web2py.com/">web2py</a>\\n                </div>\\n                \', escape=False)\nresponse.write(\'\\n            </div>\\n        </footer>\\n    </div>\\n\\n  </div> <!-- /container -->\\n\\n  <!-- The javascript =============================================\\n       (Placed at the end of the document so the pages load faster) -->\\n  <script src="\', escape=False)\nresponse.write(URL(\'static\',\'js/bootstrap.min.js\'))\nresponse.write(\'"></script>\\n  <script src="\', escape=False)\nresponse.write(URL(\'static\',\'js/web2py_bootstrap.js\'))\nresponse.write(\'"></script>\\n  <!--[if lt IE 7 ]>\\n      <script src="\', escape=False)\nresponse.write(URL(\'static\',\'js/dd_belatedpng.js\'))\nresponse.write(\'"></script>\\n      <script> DD_belatedPNG.fix(\\\'img, .png_bg\\\'); //fix any <img> or .png_bg background-images </script>\\n      <![endif]-->\\n  \\n  \', escape=False)\nif response.google_analytics_id:\n    response.write(\'\\n  <script src="\', escape=False)\n    response.write(URL(\'static\',\'js/analytics.min.js\'))\n    response.write(\'"></script>\\n  <script type="text/javascript">\\n  analytics.initialize({\\n    \\\'Google Analytics\\\':{trackingId:\\\'\', escape=False)\n    response.write(response.google_analytics_id)\n    response.write("\'} \\n  });</script>\\n  ", escape=False)\n    pass\nresponse.write(\'\\n  <script src="\', escape=False)\nresponse.write(URL(\'static\',\'js/share.js\',vars=dict(static=URL(\'static\',\'images\'))))\nresponse.write(\'"></script>\\n</body>\\n</html>\\n\\n\', escape=False)'
p7
sS'snapshot'
p8
(dp9
S'exception'
p10
(dp11
S'__hash__'
p12
S"<method-wrapper '__hash__' of exceptions.TypeError object>"
p13
sS'__setattr__'
p14
S"<method-wrapper '__setattr__' of exceptions.TypeError object>"
p15
sS'__reduce_ex__'
p16
S'<built-in method __reduce_ex__ of exceptions.TypeError object>'
p17
sS'__getslice__'
p18
S"<method-wrapper '__getslice__' of exceptions.TypeError object>"
p19
sS'__getitem__'
p20
S"<method-wrapper '__getitem__' of exceptions.TypeError object>"
p21
sS'__setstate__'
p22
S'<built-in method __setstate__ of exceptions.TypeError object>'
p23
sS'args'
p24
S"('list indices must be integers, not str',)"
p25
sS'__reduce__'
p26
S'<built-in method __reduce__ of exceptions.TypeError object>'
p27
sS'__str__'
p28
S"<method-wrapper '__str__' of exceptions.TypeError object>"
p29
sS'__format__'
p30
S'<built-in method __format__ of exceptions.TypeError object>'
p31
sS'__getattribute__'
p32
S"<method-wrapper '__getattribute__' of exceptions.TypeError object>"
p33
sS'__class__'
p34
S"<type 'exceptions.TypeError'>"
p35
sS'__unicode__'
p36
S'<built-in method __unicode__ of exceptions.TypeError object>'
p37
sS'__delattr__'
p38
S"<method-wrapper '__delattr__' of exceptions.TypeError object>"
p39
sS'__subclasshook__'
p40
S'<built-in method __subclasshook__ of type object>'
p41
sS'__repr__'
p42
S"<method-wrapper '__repr__' of exceptions.TypeError object>"
p43
sS'__dict__'
p44
S'{}'
p45
sS'__sizeof__'
p46
S'<built-in method __sizeof__ of exceptions.TypeError object>'
p47
sS'__doc__'
p48
S"'Inappropriate argument type.'"
p49
sS'__init__'
p50
S"<method-wrapper '__init__' of exceptions.TypeError object>"
p51
sS'__new__'
p52
S'<built-in method __new__ of type object>'
p53
ssS'evalue'
p54
S'list indices must be integers, not str'
p55
sS'request'
p56
ccopy_reg
_reconstructor
p57
(cgluon.html
BEAUTIFY
p58
c__builtin__
object
p59
NtRp60
(dp61
S'attributes'
p62
(dp63
sS'components'
p64
(lp65
g57
(cgluon.html
TABLE
p66
g59
NtRp67
(dp68
g62
(dp69
S'level'
p70
I5
ssS'parent'
p71
Nsg64
(lp72
g57
(cgluon.html
TR
p73
g59
NtRp74
(dp75
g62
(dp76
sg71
g67
sg64
(lp77
g57
(cgluon.html
TD
p78
g59
NtRp79
(dp80
g62
(dp81
S'_style'
p82
S'font-weight:bold;vertical-align:top'
p83
ssg71
g74
sg64
(lp84
S'ajax'
p85
asbag57
(g78
g59
NtRp86
(dp87
g62
(dp88
S'_valign'
p89
S'top'
p90
ssg71
g74
sg64
(lp91
S':'
asbag57
(g78
g59
NtRp92
(dp93
g62
(dp94
sg71
g74
sg64
(lp95
g57
(g58
g59
NtRp96
(dp97
g62
(dp98
g70
I5
ssg71
g92
sg64
(lp99
S'False'
p100
asbasbasbag57
(g73
g59
NtRp101
(dp102
g62
(dp103
sg71
g67
sg64
(lp104
g57
(g78
g59
NtRp105
(dp106
g62
(dp107
g82
g83
ssg71
g101
sg64
(lp108
S'application'
p109
asbag57
(g78
g59
NtRp110
(dp111
g62
(dp112
g89
g90
ssg71
g101
sg64
(lp113
S':'
asbag57
(g78
g59
NtRp114
(dp115
g62
(dp116
sg71
g101
sg64
(lp117
g57
(g58
g59
NtRp118
(dp119
g62
(dp120
g70
I5
ssg71
g114
sg64
(lp121
S'shipra'
p122
asbasbasbag57
(g73
g59
NtRp123
(dp124
g62
(dp125
sg71
g67
sg64
(lp126
g57
(g78
g59
NtRp127
(dp128
g62
(dp129
g82
g83
ssg71
g123
sg64
(lp130
g24
asbag57
(g78
g59
NtRp131
(dp132
g62
(dp133
g89
g90
ssg71
g123
sg64
(lp134
S':'
asbag57
(g78
g59
NtRp135
(dp136
g62
(dp137
sg71
g123
sg64
(lp138
g57
(g58
g59
NtRp139
(dp140
g62
(dp141
g70
I5
ssg71
g135
sg64
(lp142
g57
(g66
g59
NtRp143
(dp144
g62
(dp145
g70
I4
ssg71
Nsg64
(lp146
sbasbasbasbag57
(g73
g59
NtRp147
(dp148
g62
(dp149
sg71
g67
sg64
(lp150
g57
(g78
g59
NtRp151
(dp152
g62
(dp153
g82
g83
ssg71
g147
sg64
(lp154
S'body'
p155
asbag57
(g78
g59
NtRp156
(dp157
g62
(dp158
g89
g90
ssg71
g147
sg64
(lp159
S':'
asbag57
(g78
g59
NtRp160
(dp161
g62
(dp162
sg71
g147
sg64
(lp163
g57
(g58
g59
NtRp164
(dp165
g62
(dp166
g70
I5
ssg71
g160
sg64
(lp167
S'<cStringIO.StringO object at 0x7f81042feed8>'
p168
asbasbasbag57
(g73
g59
NtRp169
(dp170
g62
(dp171
sg71
g67
sg64
(lp172
g57
(g78
g59
NtRp173
(dp174
g62
(dp175
g82
g83
ssg71
g169
sg64
(lp176
S'cid'
p177
asbag57
(g78
g59
NtRp178
(dp179
g62
(dp180
g89
g90
ssg71
g169
sg64
(lp181
S':'
asbag57
(g78
g59
NtRp182
(dp183
g62
(dp184
sg71
g169
sg64
(lp185
g57
(g58
g59
NtRp186
(dp187
g62
(dp188
g70
I5
ssg71
g182
sg64
(lp189
S'None'
p190
asbasbasbag57
(g73
g59
NtRp191
(dp192
g62
(dp193
sg71
g67
sg64
(lp194
g57
(g78
g59
NtRp195
(dp196
g62
(dp197
g82
g83
ssg71
g191
sg64
(lp198
S'client'
p199
asbag57
(g78
g59
NtRp200
(dp201
g62
(dp202
g89
g90
ssg71
g191
sg64
(lp203
S':'
asbag57
(g78
g59
NtRp204
(dp205
g62
(dp206
sg71
g191
sg64
(lp207
g57
(g58
g59
NtRp208
(dp209
g62
(dp210
g70
I5
ssg71
g204
sg64
(lp211
S'127.0.0.1'
p212
asbasbasbag57
(g73
g59
NtRp213
(dp214
g62
(dp215
sg71
g67
sg64
(lp216
g57
(g78
g59
NtRp217
(dp218
g62
(dp219
g82
g83
ssg71
g213
sg64
(lp220
S'controller'
p221
asbag57
(g78
g59
NtRp222
(dp223
g62
(dp224
g89
g90
ssg71
g213
sg64
(lp225
S':'
asbag57
(g78
g59
NtRp226
(dp227
g62
(dp228
sg71
g213
sg64
(lp229
g57
(g58
g59
NtRp230
(dp231
g62
(dp232
g70
I5
ssg71
g226
sg64
(lp233
S'default'
p234
asbasbasbag57
(g73
g59
NtRp235
(dp236
g62
(dp237
sg71
g67
sg64
(lp238
g57
(g78
g59
NtRp239
(dp240
g62
(dp241
g82
g83
ssg71
g235
sg64
(lp242
S'cookies'
p243
asbag57
(g78
g59
NtRp244
(dp245
g62
(dp246
g89
g90
ssg71
g235
sg64
(lp247
S':'
asbag57
(g78
g59
NtRp248
(dp249
g62
(dp250
sg71
g235
sg64
(lp251
g57
(g58
g59
NtRp252
(dp253
g62
(dp254
g70
I5
ssg71
g248
sg64
(lp255
g57
(g66
g59
NtRp256
(dp257
g62
(dp258
g70
I4
ssg71
Nsg64
(lp259
g57
(g73
g59
NtRp260
(dp261
g62
(dp262
sg71
g256
sg64
(lp263
g57
(g78
g59
NtRp264
(dp265
g62
(dp266
g82
g83
ssg71
g260
sg64
(lp267
S'mp_2093ad9ff9c5428a2228386de2f2b0e4_mixpanel'
p268
asbag57
(g78
g59
NtRp269
(dp270
g62
(dp271
g89
g90
ssg71
g260
sg64
(lp272
S':'
asbag57
(g78
g59
NtRp273
(dp274
g62
(dp275
sg71
g260
sg64
(lp276
g57
(g58
g59
NtRp277
(dp278
g62
(dp279
g70
I4
ssg71
g273
sg64
(lp280
S'%7B%22distinct_id%22%3A%20%2262ffc2d0-7b9f-0130-efb0-22000a1cbb2a%22%2C%22is_registered_user%22%3A%20false%2C%22%24initial_referrer%22%3A%20%22%24direct%22%2C%22%24initial_referring_domain%22%3A%20%22%24direct%22%7D'
p281
ag57
(g66
g59
NtRp282
(dp283
g62
(dp284
g70
I3
ssg71
Nsg64
(lp285
g57
(g73
g59
NtRp286
(dp287
g62
(dp288
sg71
g282
sg64
(lp289
g57
(g78
g59
NtRp290
(dp291
g62
(dp292
g82
g83
ssg71
g286
sg64
(lp293
S'comment'
p294
asbag57
(g78
g59
NtRp295
(dp296
g62
(dp297
g89
g90
ssg71
g286
sg64
(lp298
S':'
asbag57
(g78
g59
NtRp299
(dp300
g62
(dp301
sg71
g286
sg64
(lp302
g57
(g58
g59
NtRp303
(dp304
g62
(dp305
g70
I3
ssg71
g299
sg64
(lp306
S''
asbasbasbag57
(g73
g59
NtRp307
(dp308
g62
(dp309
sg71
g282
sg64
(lp310
g57
(g78
g59
NtRp311
(dp312
g62
(dp313
g82
g83
ssg71
g307
sg64
(lp314
S'domain'
p315
asbag57
(g78
g59
NtRp316
(dp317
g62
(dp318
g89
g90
ssg71
g307
sg64
(lp319
S':'
asbag57
(g78
g59
NtRp320
(dp321
g62
(dp322
sg71
g307
sg64
(lp323
g57
(g58
g59
NtRp324
(dp325
g62
(dp326
g70
I3
ssg71
g320
sg64
(lp327
S''
asbasbasbag57
(g73
g59
NtRp328
(dp329
g62
(dp330
sg71
g282
sg64
(lp331
g57
(g78
g59
NtRp332
(dp333
g62
(dp334
g82
g83
ssg71
g328
sg64
(lp335
S'expires'
p336
asbag57
(g78
g59
NtRp337
(dp338
g62
(dp339
g89
g90
ssg71
g328
sg64
(lp340
S':'
asbag57
(g78
g59
NtRp341
(dp342
g62
(dp343
sg71
g328
sg64
(lp344
g57
(g58
g59
NtRp345
(dp346
g62
(dp347
g70
I3
ssg71
g341
sg64
(lp348
S''
asbasbasbag57
(g73
g59
NtRp349
(dp350
g62
(dp351
sg71
g282
sg64
(lp352
g57
(g78
g59
NtRp353
(dp354
g62
(dp355
g82
g83
ssg71
g349
sg64
(lp356
S'httponly'
p357
asbag57
(g78
g59
NtRp358
(dp359
g62
(dp360
g89
g90
ssg71
g349
sg64
(lp361
S':'
asbag57
(g78
g59
NtRp362
(dp363
g62
(dp364
sg71
g349
sg64
(lp365
g57
(g58
g59
NtRp366
(dp367
g62
(dp368
g70
I3
ssg71
g362
sg64
(lp369
S''
asbasbasbag57
(g73
g59
NtRp370
(dp371
g62
(dp372
sg71
g282
sg64
(lp373
g57
(g78
g59
NtRp374
(dp375
g62
(dp376
g82
g83
ssg71
g370
sg64
(lp377
S'max-age'
p378
asbag57
(g78
g59
NtRp379
(dp380
g62
(dp381
g89
g90
ssg71
g370
sg64
(lp382
S':'
asbag57
(g78
g59
NtRp383
(dp384
g62
(dp385
sg71
g370
sg64
(lp386
g57
(g58
g59
NtRp387
(dp388
g62
(dp389
g70
I3
ssg71
g383
sg64
(lp390
S''
asbasbasbag57
(g73
g59
NtRp391
(dp392
g62
(dp393
sg71
g282
sg64
(lp394
g57
(g78
g59
NtRp395
(dp396
g62
(dp397
g82
g83
ssg71
g391
sg64
(lp398
S'path'
p399
asbag57
(g78
g59
NtRp400
(dp401
g62
(dp402
g89
g90
ssg71
g391
sg64
(lp403
S':'
asbag57
(g78
g59
NtRp404
(dp405
g62
(dp406
sg71
g391
sg64
(lp407
g57
(g58
g59
NtRp408
(dp409
g62
(dp410
g70
I3
ssg71
g404
sg64
(lp411
S''
asbasbasbag57
(g73
g59
NtRp412
(dp413
g62
(dp414
sg71
g282
sg64
(lp415
g57
(g78
g59
NtRp416
(dp417
g62
(dp418
g82
g83
ssg71
g412
sg64
(lp419
S'secure'
p420
asbag57
(g78
g59
NtRp421
(dp422
g62
(dp423
g89
g90
ssg71
g412
sg64
(lp424
S':'
asbag57
(g78
g59
NtRp425
(dp426
g62
(dp427
sg71
g412
sg64
(lp428
g57
(g58
g59
NtRp429
(dp430
g62
(dp431
g70
I3
ssg71
g425
sg64
(lp432
S''
asbasbasbag57
(g73
g59
NtRp433
(dp434
g62
(dp435
sg71
g282
sg64
(lp436
g57
(g78
g59
NtRp437
(dp438
g62
(dp439
g82
g83
ssg71
g433
sg64
(lp440
S'version'
p441
asbag57
(g78
g59
NtRp442
(dp443
g62
(dp444
g89
g90
ssg71
g433
sg64
(lp445
S':'
asbag57
(g78
g59
NtRp446
(dp447
g62
(dp448
sg71
g433
sg64
(lp449
g57
(g58
g59
NtRp450
(dp451
g62
(dp452
g70
I3
ssg71
g446
sg64
(lp453
S''
asbasbasbasbasbasbasbag57
(g73
g59
NtRp454
(dp455
g62
(dp456
sg71
g256
sg64
(lp457
g57
(g78
g59
NtRp458
(dp459
g62
(dp460
g82
g83
ssg71
g454
sg64
(lp461
S'session_id_admin'
p462
asbag57
(g78
g59
NtRp463
(dp464
g62
(dp465
g89
g90
ssg71
g454
sg64
(lp466
S':'
asbag57
(g78
g59
NtRp467
(dp468
g62
(dp469
sg71
g454
sg64
(lp470
g57
(g58
g59
NtRp471
(dp472
g62
(dp473
g70
I4
ssg71
g467
sg64
(lp474
S'127.0.0.1-5d23d040-bd0d-400d-ad18-8db76262b069'
p475
ag57
(g66
g59
NtRp476
(dp477
g62
(dp478
g70
I3
ssg71
Nsg64
(lp479
g57
(g73
g59
NtRp480
(dp481
g62
(dp482
sg71
g476
sg64
(lp483
g57
(g78
g59
NtRp484
(dp485
g62
(dp486
g82
g83
ssg71
g480
sg64
(lp487
g294
asbag57
(g78
g59
NtRp488
(dp489
g62
(dp490
g89
g90
ssg71
g480
sg64
(lp491
S':'
asbag57
(g78
g59
NtRp492
(dp493
g62
(dp494
sg71
g480
sg64
(lp495
g57
(g58
g59
NtRp496
(dp497
g62
(dp498
g70
I3
ssg71
g492
sg64
(lp499
S''
asbasbasbag57
(g73
g59
NtRp500
(dp501
g62
(dp502
sg71
g476
sg64
(lp503
g57
(g78
g59
NtRp504
(dp505
g62
(dp506
g82
g83
ssg71
g500
sg64
(lp507
g315
asbag57
(g78
g59
NtRp508
(dp509
g62
(dp510
g89
g90
ssg71
g500
sg64
(lp511
S':'
asbag57
(g78
g59
NtRp512
(dp513
g62
(dp514
sg71
g500
sg64
(lp515
g57
(g58
g59
NtRp516
(dp517
g62
(dp518
g70
I3
ssg71
g512
sg64
(lp519
S''
asbasbasbag57
(g73
g59
NtRp520
(dp521
g62
(dp522
sg71
g476
sg64
(lp523
g57
(g78
g59
NtRp524
(dp525
g62
(dp526
g82
g83
ssg71
g520
sg64
(lp527
g336
asbag57
(g78
g59
NtRp528
(dp529
g62
(dp530
g89
g90
ssg71
g520
sg64
(lp531
S':'
asbag57
(g78
g59
NtRp532
(dp533
g62
(dp534
sg71
g520
sg64
(lp535
g57
(g58
g59
NtRp536
(dp537
g62
(dp538
g70
I3
ssg71
g532
sg64
(lp539
S''
asbasbasbag57
(g73
g59
NtRp540
(dp541
g62
(dp542
sg71
g476
sg64
(lp543
g57
(g78
g59
NtRp544
(dp545
g62
(dp546
g82
g83
ssg71
g540
sg64
(lp547
g357
asbag57
(g78
g59
NtRp548
(dp549
g62
(dp550
g89
g90
ssg71
g540
sg64
(lp551
S':'
asbag57
(g78
g59
NtRp552
(dp553
g62
(dp554
sg71
g540
sg64
(lp555
g57
(g58
g59
NtRp556
(dp557
g62
(dp558
g70
I3
ssg71
g552
sg64
(lp559
S''
asbasbasbag57
(g73
g59
NtRp560
(dp561
g62
(dp562
sg71
g476
sg64
(lp563
g57
(g78
g59
NtRp564
(dp565
g62
(dp566
g82
g83
ssg71
g560
sg64
(lp567
g378
asbag57
(g78
g59
NtRp568
(dp569
g62
(dp570
g89
g90
ssg71
g560
sg64
(lp571
S':'
asbag57
(g78
g59
NtRp572
(dp573
g62
(dp574
sg71
g560
sg64
(lp575
g57
(g58
g59
NtRp576
(dp577
g62
(dp578
g70
I3
ssg71
g572
sg64
(lp579
S''
asbasbasbag57
(g73
g59
NtRp580
(dp581
g62
(dp582
sg71
g476
sg64
(lp583
g57
(g78
g59
NtRp584
(dp585
g62
(dp586
g82
g83
ssg71
g580
sg64
(lp587
g399
asbag57
(g78
g59
NtRp588
(dp589
g62
(dp590
g89
g90
ssg71
g580
sg64
(lp591
S':'
asbag57
(g78
g59
NtRp592
(dp593
g62
(dp594
sg71
g580
sg64
(lp595
g57
(g58
g59
NtRp596
(dp597
g62
(dp598
g70
I3
ssg71
g592
sg64
(lp599
S''
asbasbasbag57
(g73
g59
NtRp600
(dp601
g62
(dp602
sg71
g476
sg64
(lp603
g57
(g78
g59
NtRp604
(dp605
g62
(dp606
g82
g83
ssg71
g600
sg64
(lp607
g420
asbag57
(g78
g59
NtRp608
(dp609
g62
(dp610
g89
g90
ssg71
g600
sg64
(lp611
S':'
asbag57
(g78
g59
NtRp612
(dp613
g62
(dp614
sg71
g600
sg64
(lp615
g57
(g58
g59
NtRp616
(dp617
g62
(dp618
g70
I3
ssg71
g612
sg64
(lp619
S''
asbasbasbag57
(g73
g59
NtRp620
(dp621
g62
(dp622
sg71
g476
sg64
(lp623
g57
(g78
g59
NtRp624
(dp625
g62
(dp626
g82
g83
ssg71
g620
sg64
(lp627
g441
asbag57
(g78
g59
NtRp628
(dp629
g62
(dp630
g89
g90
ssg71
g620
sg64
(lp631
S':'
asbag57
(g78
g59
NtRp632
(dp633
g62
(dp634
sg71
g620
sg64
(lp635
g57
(g58
g59
NtRp636
(dp637
g62
(dp638
g70
I3
ssg71
g632
sg64
(lp639
S''
asbasbasbasbasbasbasbag57
(g73
g59
NtRp640
(dp641
g62
(dp642
sg71
g256
sg64
(lp643
g57
(g78
g59
NtRp644
(dp645
g62
(dp646
g82
g83
ssg71
g640
sg64
(lp647
S'session_id_shipra'
p648
asbag57
(g78
g59
NtRp649
(dp650
g62
(dp651
g89
g90
ssg71
g640
sg64
(lp652
S':'
asbag57
(g78
g59
NtRp653
(dp654
g62
(dp655
sg71
g640
sg64
(lp656
g57
(g58
g59
NtRp657
(dp658
g62
(dp659
g70
I4
ssg71
g653
sg64
(lp660
S'127.0.0.1-2fce383b-4743-443d-a083-f77ae46b9e91'
p661
ag57
(g66
g59
NtRp662
(dp663
g62
(dp664
g70
I3
ssg71
Nsg64
(lp665
g57
(g73
g59
NtRp666
(dp667
g62
(dp668
sg71
g662
sg64
(lp669
g57
(g78
g59
NtRp670
(dp671
g62
(dp672
g82
g83
ssg71
g666
sg64
(lp673
g294
asbag57
(g78
g59
NtRp674
(dp675
g62
(dp676
g89
g90
ssg71
g666
sg64
(lp677
S':'
asbag57
(g78
g59
NtRp678
(dp679
g62
(dp680
sg71
g666
sg64
(lp681
g57
(g58
g59
NtRp682
(dp683
g62
(dp684
g70
I3
ssg71
g678
sg64
(lp685
S''
asbasbasbag57
(g73
g59
NtRp686
(dp687
g62
(dp688
sg71
g662
sg64
(lp689
g57
(g78
g59
NtRp690
(dp691
g62
(dp692
g82
g83
ssg71
g686
sg64
(lp693
g315
asbag57
(g78
g59
NtRp694
(dp695
g62
(dp696
g89
g90
ssg71
g686
sg64
(lp697
S':'
asbag57
(g78
g59
NtRp698
(dp699
g62
(dp700
sg71
g686
sg64
(lp701
g57
(g58
g59
NtRp702
(dp703
g62
(dp704
g70
I3
ssg71
g698
sg64
(lp705
S''
asbasbasbag57
(g73
g59
NtRp706
(dp707
g62
(dp708
sg71
g662
sg64
(lp709
g57
(g78
g59
NtRp710
(dp711
g62
(dp712
g82
g83
ssg71
g706
sg64
(lp713
g336
asbag57
(g78
g59
NtRp714
(dp715
g62
(dp716
g89
g90
ssg71
g706
sg64
(lp717
S':'
asbag57
(g78
g59
NtRp718
(dp719
g62
(dp720
sg71
g706
sg64
(lp721
g57
(g58
g59
NtRp722
(dp723
g62
(dp724
g70
I3
ssg71
g718
sg64
(lp725
S''
asbasbasbag57
(g73
g59
NtRp726
(dp727
g62
(dp728
sg71
g662
sg64
(lp729
g57
(g78
g59
NtRp730
(dp731
g62
(dp732
g82
g83
ssg71
g726
sg64
(lp733
g357
asbag57
(g78
g59
NtRp734
(dp735
g62
(dp736
g89
g90
ssg71
g726
sg64
(lp737
S':'
asbag57
(g78
g59
NtRp738
(dp739
g62
(dp740
sg71
g726
sg64
(lp741
g57
(g58
g59
NtRp742
(dp743
g62
(dp744
g70
I3
ssg71
g738
sg64
(lp745
S''
asbasbasbag57
(g73
g59
NtRp746
(dp747
g62
(dp748
sg71
g662
sg64
(lp749
g57
(g78
g59
NtRp750
(dp751
g62
(dp752
g82
g83
ssg71
g746
sg64
(lp753
g378
asbag57
(g78
g59
NtRp754
(dp755
g62
(dp756
g89
g90
ssg71
g746
sg64
(lp757
S':'
asbag57
(g78
g59
NtRp758
(dp759
g62
(dp760
sg71
g746
sg64
(lp761
g57
(g58
g59
NtRp762
(dp763
g62
(dp764
g70
I3
ssg71
g758
sg64
(lp765
S''
asbasbasbag57
(g73
g59
NtRp766
(dp767
g62
(dp768
sg71
g662
sg64
(lp769
g57
(g78
g59
NtRp770
(dp771
g62
(dp772
g82
g83
ssg71
g766
sg64
(lp773
g399
asbag57
(g78
g59
NtRp774
(dp775
g62
(dp776
g89
g90
ssg71
g766
sg64
(lp777
S':'
asbag57
(g78
g59
NtRp778
(dp779
g62
(dp780
sg71
g766
sg64
(lp781
g57
(g58
g59
NtRp782
(dp783
g62
(dp784
g70
I3
ssg71
g778
sg64
(lp785
S''
asbasbasbag57
(g73
g59
NtRp786
(dp787
g62
(dp788
sg71
g662
sg64
(lp789
g57
(g78
g59
NtRp790
(dp791
g62
(dp792
g82
g83
ssg71
g786
sg64
(lp793
g420
asbag57
(g78
g59
NtRp794
(dp795
g62
(dp796
g89
g90
ssg71
g786
sg64
(lp797
S':'
asbag57
(g78
g59
NtRp798
(dp799
g62
(dp800
sg71
g786
sg64
(lp801
g57
(g58
g59
NtRp802
(dp803
g62
(dp804
g70
I3
ssg71
g798
sg64
(lp805
S''
asbasbasbag57
(g73
g59
NtRp806
(dp807
g62
(dp808
sg71
g662
sg64
(lp809
g57
(g78
g59
NtRp810
(dp811
g62
(dp812
g82
g83
ssg71
g806
sg64
(lp813
g441
asbag57
(g78
g59
NtRp814
(dp815
g62
(dp816
g89
g90
ssg71
g806
sg64
(lp817
S':'
asbag57
(g78
g59
NtRp818
(dp819
g62
(dp820
sg71
g806
sg64
(lp821
g57
(g58
g59
NtRp822
(dp823
g62
(dp824
g70
I3
ssg71
g818
sg64
(lp825
S''
asbasbasbasbasbasbasbag57
(g73
g59
NtRp826
(dp827
g62
(dp828
sg71
g256
sg64
(lp829
g57
(g78
g59
NtRp830
(dp831
g62
(dp832
g82
g83
ssg71
g826
sg64
(lp833
S'session_id_welcome'
p834
asbag57
(g78
g59
NtRp835
(dp836
g62
(dp837
g89
g90
ssg71
g826
sg64
(lp838
S':'
asbag57
(g78
g59
NtRp839
(dp840
g62
(dp841
sg71
g826
sg64
(lp842
g57
(g58
g59
NtRp843
(dp844
g62
(dp845
g70
I4
ssg71
g839
sg64
(lp846
S'127.0.0.1-bac479ef-22ec-41f7-a43d-cc54391f583c'
p847
ag57
(g66
g59
NtRp848
(dp849
g62
(dp850
g70
I3
ssg71
Nsg64
(lp851
g57
(g73
g59
NtRp852
(dp853
g62
(dp854
sg71
g848
sg64
(lp855
g57
(g78
g59
NtRp856
(dp857
g62
(dp858
g82
g83
ssg71
g852
sg64
(lp859
g294
asbag57
(g78
g59
NtRp860
(dp861
g62
(dp862
g89
g90
ssg71
g852
sg64
(lp863
S':'
asbag57
(g78
g59
NtRp864
(dp865
g62
(dp866
sg71
g852
sg64
(lp867
g57
(g58
g59
NtRp868
(dp869
g62
(dp870
g70
I3
ssg71
g864
sg64
(lp871
S''
asbasbasbag57
(g73
g59
NtRp872
(dp873
g62
(dp874
sg71
g848
sg64
(lp875
g57
(g78
g59
NtRp876
(dp877
g62
(dp878
g82
g83
ssg71
g872
sg64
(lp879
g315
asbag57
(g78
g59
NtRp880
(dp881
g62
(dp882
g89
g90
ssg71
g872
sg64
(lp883
S':'
asbag57
(g78
g59
NtRp884
(dp885
g62
(dp886
sg71
g872
sg64
(lp887
g57
(g58
g59
NtRp888
(dp889
g62
(dp890
g70
I3
ssg71
g884
sg64
(lp891
S''
asbasbasbag57
(g73
g59
NtRp892
(dp893
g62
(dp894
sg71
g848
sg64
(lp895
g57
(g78
g59
NtRp896
(dp897
g62
(dp898
g82
g83
ssg71
g892
sg64
(lp899
g336
asbag57
(g78
g59
NtRp900
(dp901
g62
(dp902
g89
g90
ssg71
g892
sg64
(lp903
S':'
asbag57
(g78
g59
NtRp904
(dp905
g62
(dp906
sg71
g892
sg64
(lp907
g57
(g58
g59
NtRp908
(dp909
g62
(dp910
g70
I3
ssg71
g904
sg64
(lp911
S''
asbasbasbag57
(g73
g59
NtRp912
(dp913
g62
(dp914
sg71
g848
sg64
(lp915
g57
(g78
g59
NtRp916
(dp917
g62
(dp918
g82
g83
ssg71
g912
sg64
(lp919
g357
asbag57
(g78
g59
NtRp920
(dp921
g62
(dp922
g89
g90
ssg71
g912
sg64
(lp923
S':'
asbag57
(g78
g59
NtRp924
(dp925
g62
(dp926
sg71
g912
sg64
(lp927
g57
(g58
g59
NtRp928
(dp929
g62
(dp930
g70
I3
ssg71
g924
sg64
(lp931
S''
asbasbasbag57
(g73
g59
NtRp932
(dp933
g62
(dp934
sg71
g848
sg64
(lp935
g57
(g78
g59
NtRp936
(dp937
g62
(dp938
g82
g83
ssg71
g932
sg64
(lp939
g378
asbag57
(g78
g59
NtRp940
(dp941
g62
(dp942
g89
g90
ssg71
g932
sg64
(lp943
S':'
asbag57
(g78
g59
NtRp944
(dp945
g62
(dp946
sg71
g932
sg64
(lp947
g57
(g58
g59
NtRp948
(dp949
g62
(dp950
g70
I3
ssg71
g944
sg64
(lp951
S''
asbasbasbag57
(g73
g59
NtRp952
(dp953
g62
(dp954
sg71
g848
sg64
(lp955
g57
(g78
g59
NtRp956
(dp957
g62
(dp958
g82
g83
ssg71
g952
sg64
(lp959
g399
asbag57
(g78
g59
NtRp960
(dp961
g62
(dp962
g89
g90
ssg71
g952
sg64
(lp963
S':'
asbag57
(g78
g59
NtRp964
(dp965
g62
(dp966
sg71
g952
sg64
(lp967
g57
(g58
g59
NtRp968
(dp969
g62
(dp970
g70
I3
ssg71
g964
sg64
(lp971
S''
asbasbasbag57
(g73
g59
NtRp972
(dp973
g62
(dp974
sg71
g848
sg64
(lp975
g57
(g78
g59
NtRp976
(dp977
g62
(dp978
g82
g83
ssg71
g972
sg64
(lp979
g420
asbag57
(g78
g59
NtRp980
(dp981
g62
(dp982
g89
g90
ssg71
g972
sg64
(lp983
S':'
asbag57
(g78
g59
NtRp984
(dp985
g62
(dp986
sg71
g972
sg64
(lp987
g57
(g58
g59
NtRp988
(dp989
g62
(dp990
g70
I3
ssg71
g984
sg64
(lp991
S''
asbasbasbag57
(g73
g59
NtRp992
(dp993
g62
(dp994
sg71
g848
sg64
(lp995
g57
(g78
g59
NtRp996
(dp997
g62
(dp998
g82
g83
ssg71
g992
sg64
(lp999
g441
asbag57
(g78
g59
NtRp1000
(dp1001
g62
(dp1002
g89
g90
ssg71
g992
sg64
(lp1003
S':'
asbag57
(g78
g59
NtRp1004
(dp1005
g62
(dp1006
sg71
g992
sg64
(lp1007
g57
(g58
g59
NtRp1008
(dp1009
g62
(dp1010
g70
I3
ssg71
g1004
sg64
(lp1011
S''
asbasbasbasbasbasbasbasbasbasbasbag57
(g73
g59
NtRp1012
(dp1013
g62
(dp1014
sg71
g67
sg64
(lp1015
g57
(g78
g59
NtRp1016
(dp1017
g62
(dp1018
g82
g83
ssg71
g1012
sg64
(lp1019
S'env'
p1020
asbag57
(g78
g59
NtRp1021
(dp1022
g62
(dp1023
g89
g90
ssg71
g1012
sg64
(lp1024
S':'
asbag57
(g78
g59
NtRp1025
(dp1026
g62
(dp1027
sg71
g1012
sg64
(lp1028
g57
(g58
g59
NtRp1029
(dp1030
g62
(dp1031
g70
I5
ssg71
g1025
sg64
(lp1032
g57
(g66
g59
NtRp1033
(dp1034
g62
(dp1035
g70
I4
ssg71
Nsg64
(lp1036
g57
(g73
g59
NtRp1037
(dp1038
g62
(dp1039
sg71
g1033
sg64
(lp1040
g57
(g78
g59
NtRp1041
(dp1042
g62
(dp1043
g82
g83
ssg71
g1037
sg64
(lp1044
S'app_folders'
p1045
asbag57
(g78
g59
NtRp1046
(dp1047
g62
(dp1048
g89
g90
ssg71
g1037
sg64
(lp1049
S':'
asbag57
(g78
g59
NtRp1050
(dp1051
g62
(dp1052
sg71
g1037
sg64
(lp1053
g57
(g58
g59
NtRp1054
(dp1055
g62
(dp1056
g70
I4
ssg71
g1050
sg64
(lp1057
S"set(['/home/shipra/Desktop/Semester 1.2/ITWS-2/web2py/applications/shipra/', '/home/shipra/Desktop/Semester 1.2/ITWS-2/web2py/applications/welcome/', '/home/shipra/Desktop/Semester 1.2/ITWS-2/web2py/applications/admin/'])"
p1058
asbasbasbag57
(g73
g59
NtRp1059
(dp1060
g62
(dp1061
sg71
g1033
sg64
(lp1062
g57
(g78
g59
NtRp1063
(dp1064
g62
(dp1065
g82
g83
ssg71
g1059
sg64
(lp1066
S'applications_parent'
p1067
asbag57
(g78
g59
NtRp1068
(dp1069
g62
(dp1070
g89
g90
ssg71
g1059
sg64
(lp1071
S':'
asbag57
(g78
g59
NtRp1072
(dp1073
g62
(dp1074
sg71
g1059
sg64
(lp1075
g57
(g58
g59
NtRp1076
(dp1077
g62
(dp1078
g70
I4
ssg71
g1072
sg64
(lp1079
S'/home/shipra/Desktop/Semester 1.2/ITWS-2/web2py'
p1080
asbasbasbag57
(g73
g59
NtRp1081
(dp1082
g62
(dp1083
sg71
g1033
sg64
(lp1084
g57
(g78
g59
NtRp1085
(dp1086
g62
(dp1087
g82
g83
ssg71
g1081
sg64
(lp1088
S'cmd_args'
p1089
asbag57
(g78
g59
NtRp1090
(dp1091
g62
(dp1092
g89
g90
ssg71
g1081
sg64
(lp1093
S':'
asbag57
(g78
g59
NtRp1094
(dp1095
g62
(dp1096
sg71
g1081
sg64
(lp1097
g57
(g58
g59
NtRp1098
(dp1099
g62
(dp1100
g70
I4
ssg71
g1094
sg64
(lp1101
g57
(g66
g59
NtRp1102
(dp1103
g62
(dp1104
g70
I3
ssg71
Nsg64
(lp1105
sbasbasbasbag57
(g73
g59
NtRp1106
(dp1107
g62
(dp1108
sg71
g1033
sg64
(lp1109
g57
(g78
g59
NtRp1110
(dp1111
g62
(dp1112
g82
g83
ssg71
g1106
sg64
(lp1113
S'cmd_options'
p1114
asbag57
(g78
g59
NtRp1115
(dp1116
g62
(dp1117
g89
g90
ssg71
g1106
sg64
(lp1118
S':'
asbag57
(g78
g59
NtRp1119
(dp1120
g62
(dp1121
sg71
g1106
sg64
(lp1122
g57
(g58
g59
NtRp1123
(dp1124
g62
(dp1125
g70
I4
ssg71
g1119
sg64
(lp1126
S"<Values at 0x2611248: {'verbose': False, 'ip': '127.0.0.1', 'with_scheduler': False, 'ips': ['192.168.122.1'], 'shutdown_timeout': 5, 'taskbar': False, 'port': 8000, 'maxthreads': None, 'softcron': False, 'server_name': 'shipra', 'bpython': False, 'nogui': False, 'pid_filename': 'httpserver.pid', 'extcron': False, 'runcron': False, 'run_system_tests': False, 'test': None, 'folder': '/home/shipra/Desktop/Semester 1.2/ITWS-2/web2py', 'config': '', 'minthreads': None, 'winservice': '', 'shell': None, 'run': '', 'log_filename': 'httpserver.log', 'debuglevel': 30, 'args': [''], 'socket_timeout': 5, 'ssl_ca_certificate': None, 'scheduler': None, 'profiler_filename': None, 'ssl_private_key': '', 'scheduler_groups': None, 'password': '<ask>', 'request_queue_size': 5, 'ssl_certificate': '', 'cronjob': False, 'numthreads': None, 'quiet': False, 'interfaces': None, 'import_models': False, 'timeout': 10, 'plain': False, 'nobanner': False}>"
p1127
asbasbasbag57
(g73
g59
NtRp1128
(dp1129
g62
(dp1130
sg71
g1033
sg64
(lp1131
g57
(g78
g59
NtRp1132
(dp1133
g62
(dp1134
g82
g83
ssg71
g1128
sg64
(lp1135
S'db_sessions'
p1136
asbag57
(g78
g59
NtRp1137
(dp1138
g62
(dp1139
g89
g90
ssg71
g1128
sg64
(lp1140
S':'
asbag57
(g78
g59
NtRp1141
(dp1142
g62
(dp1143
sg71
g1128
sg64
(lp1144
g57
(g58
g59
NtRp1145
(dp1146
g62
(dp1147
g70
I4
ssg71
g1141
sg64
(lp1148
S'set([])'
p1149
asbasbasbag57
(g73
g59
NtRp1150
(dp1151
g62
(dp1152
sg71
g1033
sg64
(lp1153
g57
(g78
g59
NtRp1154
(dp1155
g62
(dp1156
g82
g83
ssg71
g1150
sg64
(lp1157
S'debugging'
p1158
asbag57
(g78
g59
NtRp1159
(dp1160
g62
(dp1161
g89
g90
ssg71
g1150
sg64
(lp1162
S':'
asbag57
(g78
g59
NtRp1163
(dp1164
g62
(dp1165
sg71
g1150
sg64
(lp1166
g57
(g58
g59
NtRp1167
(dp1168
g62
(dp1169
g70
I4
ssg71
g1163
sg64
(lp1170
g100
asbasbasbag57
(g73
g59
NtRp1171
(dp1172
g62
(dp1173
sg71
g1033
sg64
(lp1174
g57
(g78
g59
NtRp1175
(dp1176
g62
(dp1177
g82
g83
ssg71
g1171
sg64
(lp1178
S'gluon_parent'
p1179
asbag57
(g78
g59
NtRp1180
(dp1181
g62
(dp1182
g89
g90
ssg71
g1171
sg64
(lp1183
S':'
asbag57
(g78
g59
NtRp1184
(dp1185
g62
(dp1186
sg71
g1171
sg64
(lp1187
g57
(g58
g59
NtRp1188
(dp1189
g62
(dp1190
g70
I4
ssg71
g1184
sg64
(lp1191
S'/home/shipra/Desktop/Semester 1.2/ITWS-2/web2py'
p1192
asbasbasbag57
(g73
g59
NtRp1193
(dp1194
g62
(dp1195
sg71
g1033
sg64
(lp1196
g57
(g78
g59
NtRp1197
(dp1198
g62
(dp1199
g82
g83
ssg71
g1193
sg64
(lp1200
S'http_accept'
p1201
asbag57
(g78
g59
NtRp1202
(dp1203
g62
(dp1204
g89
g90
ssg71
g1193
sg64
(lp1205
S':'
asbag57
(g78
g59
NtRp1206
(dp1207
g62
(dp1208
sg71
g1193
sg64
(lp1209
g57
(g58
g59
NtRp1210
(dp1211
g62
(dp1212
g70
I4
ssg71
g1206
sg64
(lp1213
S'text/html,application/xhtml+xml,application/xml;q=0.9,*/*;q=0.8'
p1214
asbasbasbag57
(g73
g59
NtRp1215
(dp1216
g62
(dp1217
sg71
g1033
sg64
(lp1218
g57
(g78
g59
NtRp1219
(dp1220
g62
(dp1221
g82
g83
ssg71
g1215
sg64
(lp1222
S'http_accept_encoding'
p1223
asbag57
(g78
g59
NtRp1224
(dp1225
g62
(dp1226
g89
g90
ssg71
g1215
sg64
(lp1227
S':'
asbag57
(g78
g59
NtRp1228
(dp1229
g62
(dp1230
sg71
g1215
sg64
(lp1231
g57
(g58
g59
NtRp1232
(dp1233
g62
(dp1234
g70
I4
ssg71
g1228
sg64
(lp1235
S'gzip, deflate'
p1236
asbasbasbag57
(g73
g59
NtRp1237
(dp1238
g62
(dp1239
sg71
g1033
sg64
(lp1240
g57
(g78
g59
NtRp1241
(dp1242
g62
(dp1243
g82
g83
ssg71
g1237
sg64
(lp1244
S'http_accept_language'
p1245
asbag57
(g78
g59
NtRp1246
(dp1247
g62
(dp1248
g89
g90
ssg71
g1237
sg64
(lp1249
S':'
asbag57
(g78
g59
NtRp1250
(dp1251
g62
(dp1252
sg71
g1237
sg64
(lp1253
g57
(g58
g59
NtRp1254
(dp1255
g62
(dp1256
g70
I4
ssg71
g1250
sg64
(lp1257
S'en-us,en;q=0.5'
p1258
asbasbasbag57
(g73
g59
NtRp1259
(dp1260
g62
(dp1261
sg71
g1033
sg64
(lp1262
g57
(g78
g59
NtRp1263
(dp1264
g62
(dp1265
g82
g83
ssg71
g1259
sg64
(lp1266
S'http_connection'
p1267
asbag57
(g78
g59
NtRp1268
(dp1269
g62
(dp1270
g89
g90
ssg71
g1259
sg64
(lp1271
S':'
asbag57
(g78
g59
NtRp1272
(dp1273
g62
(dp1274
sg71
g1259
sg64
(lp1275
g57
(g58
g59
NtRp1276
(dp1277
g62
(dp1278
g70
I4
ssg71
g1272
sg64
(lp1279
S'keep-alive'
p1280
asbasbasbag57
(g73
g59
NtRp1281
(dp1282
g62
(dp1283
sg71
g1033
sg64
(lp1284
g57
(g78
g59
NtRp1285
(dp1286
g62
(dp1287
g82
g83
ssg71
g1281
sg64
(lp1288
S'http_cookie'
p1289
asbag57
(g78
g59
NtRp1290
(dp1291
g62
(dp1292
g89
g90
ssg71
g1281
sg64
(lp1293
S':'
asbag57
(g78
g59
NtRp1294
(dp1295
g62
(dp1296
sg71
g1281
sg64
(lp1297
g57
(g58
g59
NtRp1298
(dp1299
g62
(dp1300
g70
I4
ssg71
g1294
sg64
(lp1301
S'__utma=96992031.1334412862.1364672878.1364672878.1364718243.2; __utmz=96992031.1364672878.1.1.utmcsr=(direct)|utmccn=(direct)|utmcmd=(none); __lc.visitor_id.1195381=S1364672235.4faffcf2d2; __ar_v4=OWHSPOGHTNEIPPPBMHVFTA%3A20130329%3A12%7CAMEDRHI4VZG4TIA2AZ565D%3A20130329%3A12%7CWAEQXC4B2NH3DDBR3TZM6I%3A20130329%3A12; mp_2093ad9ff9c5428a2228386de2f2b0e4_mixpanel=%7B%22distinct_id%22%3A%20%2262ffc2d0-7b9f-0130-efb0-22000a1cbb2a%22%2C%22is_registered_user%22%3A%20false%2C%22%24initial_referrer%22%3A%20%22%24direct%22%2C%22%24initial_referring_domain%22%3A%20%22%24direct%22%7D; session_id_welcome=127.0.0.1-bac479ef-22ec-41f7-a43d-cc54391f583c; session_id_admin=127.0.0.1-5d23d040-bd0d-400d-ad18-8db76262b069; session_id_shipra=127.0.0.1-2fce383b-4743-443d-a083-f77ae46b9e91'
p1302
asbasbasbag57
(g73
g59
NtRp1303
(dp1304
g62
(dp1305
sg71
g1033
sg64
(lp1306
g57
(g78
g59
NtRp1307
(dp1308
g62
(dp1309
g82
g83
ssg71
g1303
sg64
(lp1310
S'http_host'
p1311
asbag57
(g78
g59
NtRp1312
(dp1313
g62
(dp1314
g89
g90
ssg71
g1303
sg64
(lp1315
S':'
asbag57
(g78
g59
NtRp1316
(dp1317
g62
(dp1318
sg71
g1303
sg64
(lp1319
g57
(g58
g59
NtRp1320
(dp1321
g62
(dp1322
g70
I4
ssg71
g1316
sg64
(lp1323
S'127.0.0.1:8000'
p1324
asbasbasbag57
(g73
g59
NtRp1325
(dp1326
g62
(dp1327
sg71
g1033
sg64
(lp1328
g57
(g78
g59
NtRp1329
(dp1330
g62
(dp1331
g82
g83
ssg71
g1325
sg64
(lp1332
S'http_user_agent'
p1333
asbag57
(g78
g59
NtRp1334
(dp1335
g62
(dp1336
g89
g90
ssg71
g1325
sg64
(lp1337
S':'
asbag57
(g78
g59
NtRp1338
(dp1339
g62
(dp1340
sg71
g1325
sg64
(lp1341
g57
(g58
g59
NtRp1342
(dp1343
g62
(dp1344
g70
I4
ssg71
g1338
sg64
(lp1345
S'Mozilla/5.0 (X11; Linux x86_64; rv:12.0) Gecko/20100101 Firefox/12.0'
p1346
asbasbasbag57
(g73
g59
NtRp1347
(dp1348
g62
(dp1349
sg71
g1033
sg64
(lp1350
g57
(g78
g59
NtRp1351
(dp1352
g62
(dp1353
g82
g83
ssg71
g1347
sg64
(lp1354
S'is_jython'
p1355
asbag57
(g78
g59
NtRp1356
(dp1357
g62
(dp1358
g89
g90
ssg71
g1347
sg64
(lp1359
S':'
asbag57
(g78
g59
NtRp1360
(dp1361
g62
(dp1362
sg71
g1347
sg64
(lp1363
g57
(g58
g59
NtRp1364
(dp1365
g62
(dp1366
g70
I4
ssg71
g1360
sg64
(lp1367
g100
asbasbasbag57
(g73
g59
NtRp1368
(dp1369
g62
(dp1370
sg71
g1033
sg64
(lp1371
g57
(g78
g59
NtRp1372
(dp1373
g62
(dp1374
g82
g83
ssg71
g1368
sg64
(lp1375
S'is_pypy'
p1376
asbag57
(g78
g59
NtRp1377
(dp1378
g62
(dp1379
g89
g90
ssg71
g1368
sg64
(lp1380
S':'
asbag57
(g78
g59
NtRp1381
(dp1382
g62
(dp1383
sg71
g1368
sg64
(lp1384
g57
(g58
g59
NtRp1385
(dp1386
g62
(dp1387
g70
I4
ssg71
g1381
sg64
(lp1388
g100
asbasbasbag57
(g73
g59
NtRp1389
(dp1390
g62
(dp1391
sg71
g1033
sg64
(lp1392
g57
(g78
g59
NtRp1393
(dp1394
g62
(dp1395
g82
g83
ssg71
g1389
sg64
(lp1396
S'local_hosts'
p1397
asbag57
(g78
g59
NtRp1398
(dp1399
g62
(dp1400
g89
g90
ssg71
g1389
sg64
(lp1401
S':'
asbag57
(g78
g59
NtRp1402
(dp1403
g62
(dp1404
sg71
g1389
sg64
(lp1405
g57
(g58
g59
NtRp1406
(dp1407
g62
(dp1408
g70
I4
ssg71
g1402
sg64
(lp1409
g57
(g66
g59
NtRp1410
(dp1411
g62
(dp1412
g70
I3
ssg71
Nsg64
(lp1413
g57
(g73
g59
NtRp1414
(dp1415
g62
(dp1416
sg71
g1410
sg64
(lp1417
g57
(g78
g59
NtRp1418
(dp1419
g62
(dp1420
sg71
g1414
sg64
(lp1421
g57
(g58
g59
NtRp1422
(dp1423
g62
(dp1424
g70
I3
ssg71
g1418
sg64
(lp1425
S'::1'
p1426
asbasbasbag57
(g73
g59
NtRp1427
(dp1428
g62
(dp1429
sg71
g1410
sg64
(lp1430
g57
(g78
g59
NtRp1431
(dp1432
g62
(dp1433
sg71
g1427
sg64
(lp1434
g57
(g58
g59
NtRp1435
(dp1436
g62
(dp1437
g70
I3
ssg71
g1431
sg64
(lp1438
S'192.168.122.1'
p1439
asbasbasbag57
(g73
g59
NtRp1440
(dp1441
g62
(dp1442
sg71
g1410
sg64
(lp1443
g57
(g78
g59
NtRp1444
(dp1445
g62
(dp1446
sg71
g1440
sg64
(lp1447
g57
(g58
g59
NtRp1448
(dp1449
g62
(dp1450
g70
I3
ssg71
g1444
sg64
(lp1451
S'::ffff:127.0.0.1'
p1452
asbasbasbag57
(g73
g59
NtRp1453
(dp1454
g62
(dp1455
sg71
g1410
sg64
(lp1456
g57
(g78
g59
NtRp1457
(dp1458
g62
(dp1459
sg71
g1453
sg64
(lp1460
g57
(g58
g59
NtRp1461
(dp1462
g62
(dp1463
g70
I3
ssg71
g1457
sg64
(lp1464
S'127.0.0.1'
p1465
asbasbasbag57
(g73
g59
NtRp1466
(dp1467
g62
(dp1468
sg71
g1410
sg64
(lp1469
g57
(g78
g59
NtRp1470
(dp1471
g62
(dp1472
sg71
g1466
sg64
(lp1473
g57
(g58
g59
NtRp1474
(dp1475
g62
(dp1476
g70
I3
ssg71
g1470
sg64
(lp1477
S'shipra'
p1478
asbasbasbasbasbasbasbag57
(g73
g59
NtRp1479
(dp1480
g62
(dp1481
sg71
g1033
sg64
(lp1482
g57
(g78
g59
NtRp1483
(dp1484
g62
(dp1485
g82
g83
ssg71
g1479
sg64
(lp1486
S'path_info'
p1487
asbag57
(g78
g59
NtRp1488
(dp1489
g62
(dp1490
g89
g90
ssg71
g1479
sg64
(lp1491
S':'
asbag57
(g78
g59
NtRp1492
(dp1493
g62
(dp1494
sg71
g1479
sg64
(lp1495
g57
(g58
g59
NtRp1496
(dp1497
g62
(dp1498
g70
I4
ssg71
g1492
sg64
(lp1499
S'/shipra/default/prin'
p1500
asbasbasbag57
(g73
g59
NtRp1501
(dp1502
g62
(dp1503
sg71
g1033
sg64
(lp1504
g57
(g78
g59
NtRp1505
(dp1506
g62
(dp1507
g82
g83
ssg71
g1501
sg64
(lp1508
S'query_string'
p1509
asbag57
(g78
g59
NtRp1510
(dp1511
g62
(dp1512
g89
g90
ssg71
g1501
sg64
(lp1513
S':'
asbag57
(g78
g59
NtRp1514
(dp1515
g62
(dp1516
sg71
g1501
sg64
(lp1517
g57
(g58
g59
NtRp1518
(dp1519
g62
(dp1520
g70
I4
ssg71
g1514
sg64
(lp1521
S''
asbasbasbag57
(g73
g59
NtRp1522
(dp1523
g62
(dp1524
sg71
g1033
sg64
(lp1525
g57
(g78
g59
NtRp1526
(dp1527
g62
(dp1528
g82
g83
ssg71
g1522
sg64
(lp1529
S'remote_addr'
p1530
asbag57
(g78
g59
NtRp1531
(dp1532
g62
(dp1533
g89
g90
ssg71
g1522
sg64
(lp1534
S':'
asbag57
(g78
g59
NtRp1535
(dp1536
g62
(dp1537
sg71
g1522
sg64
(lp1538
g57
(g58
g59
NtRp1539
(dp1540
g62
(dp1541
g70
I4
ssg71
g1535
sg64
(lp1542
g212
asbasbasbag57
(g73
g59
NtRp1543
(dp1544
g62
(dp1545
sg71
g1033
sg64
(lp1546
g57
(g78
g59
NtRp1547
(dp1548
g62
(dp1549
g82
g83
ssg71
g1543
sg64
(lp1550
S'remote_port'
p1551
asbag57
(g78
g59
NtRp1552
(dp1553
g62
(dp1554
g89
g90
ssg71
g1543
sg64
(lp1555
S':'
asbag57
(g78
g59
NtRp1556
(dp1557
g62
(dp1558
sg71
g1543
sg64
(lp1559
g57
(g58
g59
NtRp1560
(dp1561
g62
(dp1562
g70
I4
ssg71
g1556
sg64
(lp1563
S'46766'
p1564
asbasbasbag57
(g73
g59
NtRp1565
(dp1566
g62
(dp1567
sg71
g1033
sg64
(lp1568
g57
(g78
g59
NtRp1569
(dp1570
g62
(dp1571
g82
g83
ssg71
g1565
sg64
(lp1572
S'request_method'
p1573
asbag57
(g78
g59
NtRp1574
(dp1575
g62
(dp1576
g89
g90
ssg71
g1565
sg64
(lp1577
S':'
asbag57
(g78
g59
NtRp1578
(dp1579
g62
(dp1580
sg71
g1565
sg64
(lp1581
g57
(g58
g59
NtRp1582
(dp1583
g62
(dp1584
g70
I4
ssg71
g1578
sg64
(lp1585
S'GET'
p1586
asbasbasbag57
(g73
g59
NtRp1587
(dp1588
g62
(dp1589
sg71
g1033
sg64
(lp1590
g57
(g78
g59
NtRp1591
(dp1592
g62
(dp1593
g82
g83
ssg71
g1587
sg64
(lp1594
S'request_uri'
p1595
asbag57
(g78
g59
NtRp1596
(dp1597
g62
(dp1598
g89
g90
ssg71
g1587
sg64
(lp1599
S':'
asbag57
(g78
g59
NtRp1600
(dp1601
g62
(dp1602
sg71
g1587
sg64
(lp1603
g57
(g58
g59
NtRp1604
(dp1605
g62
(dp1606
g70
I4
ssg71
g1600
sg64
(lp1607
g1500
asbasbasbag57
(g73
g59
NtRp1608
(dp1609
g62
(dp1610
sg71
g1033
sg64
(lp1611
g57
(g78
g59
NtRp1612
(dp1613
g62
(dp1614
g82
g83
ssg71
g1608
sg64
(lp1615
S'script_name'
p1616
asbag57
(g78
g59
NtRp1617
(dp1618
g62
(dp1619
g89
g90
ssg71
g1608
sg64
(lp1620
S':'
asbag57
(g78
g59
NtRp1621
(dp1622
g62
(dp1623
sg71
g1608
sg64
(lp1624
g57
(g58
g59
NtRp1625
(dp1626
g62
(dp1627
g70
I4
ssg71
g1621
sg64
(lp1628
S''
asbasbasbag57
(g73
g59
NtRp1629
(dp1630
g62
(dp1631
sg71
g1033
sg64
(lp1632
g57
(g78
g59
NtRp1633
(dp1634
g62
(dp1635
g82
g83
ssg71
g1629
sg64
(lp1636
S'server_name'
p1637
asbag57
(g78
g59
NtRp1638
(dp1639
g62
(dp1640
g89
g90
ssg71
g1629
sg64
(lp1641
S':'
asbag57
(g78
g59
NtRp1642
(dp1643
g62
(dp1644
sg71
g1629
sg64
(lp1645
g57
(g58
g59
NtRp1646
(dp1647
g62
(dp1648
g70
I4
ssg71
g1642
sg64
(lp1649
S'shipra'
p1650
asbasbasbag57
(g73
g59
NtRp1651
(dp1652
g62
(dp1653
sg71
g1033
sg64
(lp1654
g57
(g78
g59
NtRp1655
(dp1656
g62
(dp1657
g82
g83
ssg71
g1651
sg64
(lp1658
S'server_port'
p1659
asbag57
(g78
g59
NtRp1660
(dp1661
g62
(dp1662
g89
g90
ssg71
g1651
sg64
(lp1663
S':'
asbag57
(g78
g59
NtRp1664
(dp1665
g62
(dp1666
sg71
g1651
sg64
(lp1667
g57
(g58
g59
NtRp1668
(dp1669
g62
(dp1670
g70
I4
ssg71
g1664
sg64
(lp1671
S'8000'
p1672
asbasbasbag57
(g73
g59
NtRp1673
(dp1674
g62
(dp1675
sg71
g1033
sg64
(lp1676
g57
(g78
g59
NtRp1677
(dp1678
g62
(dp1679
g82
g83
ssg71
g1673
sg64
(lp1680
S'server_protocol'
p1681
asbag57
(g78
g59
NtRp1682
(dp1683
g62
(dp1684
g89
g90
ssg71
g1673
sg64
(lp1685
S':'
asbag57
(g78
g59
NtRp1686
(dp1687
g62
(dp1688
sg71
g1673
sg64
(lp1689
g57
(g58
g59
NtRp1690
(dp1691
g62
(dp1692
g70
I4
ssg71
g1686
sg64
(lp1693
S'HTTP/1.1'
p1694
asbasbasbag57
(g73
g59
NtRp1695
(dp1696
g62
(dp1697
sg71
g1033
sg64
(lp1698
g57
(g78
g59
NtRp1699
(dp1700
g62
(dp1701
g82
g83
ssg71
g1695
sg64
(lp1702
S'server_software'
p1703
asbag57
(g78
g59
NtRp1704
(dp1705
g62
(dp1706
g89
g90
ssg71
g1695
sg64
(lp1707
S':'
asbag57
(g78
g59
NtRp1708
(dp1709
g62
(dp1710
sg71
g1695
sg64
(lp1711
g57
(g58
g59
NtRp1712
(dp1713
g62
(dp1714
g70
I4
ssg71
g1708
sg64
(lp1715
S'Rocket 1.2.6'
p1716
asbasbasbag57
(g73
g59
NtRp1717
(dp1718
g62
(dp1719
sg71
g1033
sg64
(lp1720
g57
(g78
g59
NtRp1721
(dp1722
g62
(dp1723
g82
g83
ssg71
g1717
sg64
(lp1724
S'web2py_path'
p1725
asbag57
(g78
g59
NtRp1726
(dp1727
g62
(dp1728
g89
g90
ssg71
g1717
sg64
(lp1729
S':'
asbag57
(g78
g59
NtRp1730
(dp1731
g62
(dp1732
sg71
g1717
sg64
(lp1733
g57
(g58
g59
NtRp1734
(dp1735
g62
(dp1736
g70
I4
ssg71
g1730
sg64
(lp1737
g1080
asbasbasbag57
(g73
g59
NtRp1738
(dp1739
g62
(dp1740
sg71
g1033
sg64
(lp1741
g57
(g78
g59
NtRp1742
(dp1743
g62
(dp1744
g82
g83
ssg71
g1738
sg64
(lp1745
S'web2py_version'
p1746
asbag57
(g78
g59
NtRp1747
(dp1748
g62
(dp1749
g89
g90
ssg71
g1738
sg64
(lp1750
S':'
asbag57
(g78
g59
NtRp1751
(dp1752
g62
(dp1753
sg71
g1738
sg64
(lp1754
g57
(g58
g59
NtRp1755
(dp1756
g62
(dp1757
g70
I4
ssg71
g1751
sg64
(lp1758
g57
(g66
g59
NtRp1759
(dp1760
g62
(dp1761
g70
I3
ssg71
Nsg64
(lp1762
g57
(g73
g59
NtRp1763
(dp1764
g62
(dp1765
sg71
g1759
sg64
(lp1766
g57
(g78
g59
NtRp1767
(dp1768
g62
(dp1769
sg71
g1763
sg64
(lp1770
g57
(g58
g59
NtRp1771
(dp1772
g62
(dp1773
g70
I3
ssg71
g1767
sg64
(lp1774
S'2'
asbasbasbag57
(g73
g59
NtRp1775
(dp1776
g62
(dp1777
sg71
g1759
sg64
(lp1778
g57
(g78
g59
NtRp1779
(dp1780
g62
(dp1781
sg71
g1775
sg64
(lp1782
g57
(g58
g59
NtRp1783
(dp1784
g62
(dp1785
g70
I3
ssg71
g1779
sg64
(lp1786
S'3'
asbasbasbag57
(g73
g59
NtRp1787
(dp1788
g62
(dp1789
sg71
g1759
sg64
(lp1790
g57
(g78
g59
NtRp1791
(dp1792
g62
(dp1793
sg71
g1787
sg64
(lp1794
g57
(g58
g59
NtRp1795
(dp1796
g62
(dp1797
g70
I3
ssg71
g1791
sg64
(lp1798
S'2'
asbasbasbag57
(g73
g59
NtRp1799
(dp1800
g62
(dp1801
sg71
g1759
sg64
(lp1802
g57
(g78
g59
NtRp1803
(dp1804
g62
(dp1805
sg71
g1799
sg64
(lp1806
g57
(g58
g59
NtRp1807
(dp1808
g62
(dp1809
g70
I3
ssg71
g1803
sg64
(lp1810
S'datetime.datetime(2012, 12, 17, 15, 3, 30)'
p1811
asbasbasbag57
(g73
g59
NtRp1812
(dp1813
g62
(dp1814
sg71
g1759
sg64
(lp1815
g57
(g78
g59
NtRp1816
(dp1817
g62
(dp1818
sg71
g1812
sg64
(lp1819
g57
(g58
g59
NtRp1820
(dp1821
g62
(dp1822
g70
I3
ssg71
g1816
sg64
(lp1823
S'stable'
p1824
asbasbasbasbasbasbasbag57
(g73
g59
NtRp1825
(dp1826
g62
(dp1827
sg71
g1033
sg64
(lp1828
g57
(g78
g59
NtRp1829
(dp1830
g62
(dp1831
g82
g83
ssg71
g1825
sg64
(lp1832
S'wsgi_errors'
p1833
asbag57
(g78
g59
NtRp1834
(dp1835
g62
(dp1836
g89
g90
ssg71
g1825
sg64
(lp1837
S':'
asbag57
(g78
g59
NtRp1838
(dp1839
g62
(dp1840
sg71
g1825
sg64
(lp1841
g57
(g58
g59
NtRp1842
(dp1843
g62
(dp1844
g70
I4
ssg71
g1838
sg64
(lp1845
S"<open file '<stderr>', mode 'w' at 0x7f813e4ad270>"
p1846
asbasbasbag57
(g73
g59
NtRp1847
(dp1848
g62
(dp1849
sg71
g1033
sg64
(lp1850
g57
(g78
g59
NtRp1851
(dp1852
g62
(dp1853
g82
g83
ssg71
g1847
sg64
(lp1854
S'wsgi_file_wrapper'
p1855
asbag57
(g78
g59
NtRp1856
(dp1857
g62
(dp1858
g89
g90
ssg71
g1847
sg64
(lp1859
S':'
asbag57
(g78
g59
NtRp1860
(dp1861
g62
(dp1862
sg71
g1847
sg64
(lp1863
g57
(g58
g59
NtRp1864
(dp1865
g62
(dp1866
g70
I4
ssg71
g1860
sg64
(lp1867
S'<class wsgiref.util.FileWrapper at 0x259adb8>'
p1868
asbasbasbag57
(g73
g59
NtRp1869
(dp1870
g62
(dp1871
sg71
g1033
sg64
(lp1872
g57
(g78
g59
NtRp1873
(dp1874
g62
(dp1875
g82
g83
ssg71
g1869
sg64
(lp1876
S'wsgi_input'
p1877
asbag57
(g78
g59
NtRp1878
(dp1879
g62
(dp1880
g89
g90
ssg71
g1869
sg64
(lp1881
S':'
asbag57
(g78
g59
NtRp1882
(dp1883
g62
(dp1884
sg71
g1869
sg64
(lp1885
g57
(g58
g59
NtRp1886
(dp1887
g62
(dp1888
g70
I4
ssg71
g1882
sg64
(lp1889
S'<socket._fileobject object at 0x7f810406d850>'
p1890
asbasbasbag57
(g73
g59
NtRp1891
(dp1892
g62
(dp1893
sg71
g1033
sg64
(lp1894
g57
(g78
g59
NtRp1895
(dp1896
g62
(dp1897
g82
g83
ssg71
g1891
sg64
(lp1898
S'wsgi_multiprocess'
p1899
asbag57
(g78
g59
NtRp1900
(dp1901
g62
(dp1902
g89
g90
ssg71
g1891
sg64
(lp1903
S':'
asbag57
(g78
g59
NtRp1904
(dp1905
g62
(dp1906
sg71
g1891
sg64
(lp1907
g57
(g58
g59
NtRp1908
(dp1909
g62
(dp1910
g70
I4
ssg71
g1904
sg64
(lp1911
g100
asbasbasbag57
(g73
g59
NtRp1912
(dp1913
g62
(dp1914
sg71
g1033
sg64
(lp1915
g57
(g78
g59
NtRp1916
(dp1917
g62
(dp1918
g82
g83
ssg71
g1912
sg64
(lp1919
S'wsgi_multithread'
p1920
asbag57
(g78
g59
NtRp1921
(dp1922
g62
(dp1923
g89
g90
ssg71
g1912
sg64
(lp1924
S':'
asbag57
(g78
g59
NtRp1925
(dp1926
g62
(dp1927
sg71
g1912
sg64
(lp1928
g57
(g58
g59
NtRp1929
(dp1930
g62
(dp1931
g70
I4
ssg71
g1925
sg64
(lp1932
S'True'
p1933
asbasbasbag57
(g73
g59
NtRp1934
(dp1935
g62
(dp1936
sg71
g1033
sg64
(lp1937
g57
(g78
g59
NtRp1938
(dp1939
g62
(dp1940
g82
g83
ssg71
g1934
sg64
(lp1941
S'wsgi_run_once'
p1942
asbag57
(g78
g59
NtRp1943
(dp1944
g62
(dp1945
g89
g90
ssg71
g1934
sg64
(lp1946
S':'
asbag57
(g78
g59
NtRp1947
(dp1948
g62
(dp1949
sg71
g1934
sg64
(lp1950
g57
(g58
g59
NtRp1951
(dp1952
g62
(dp1953
g70
I4
ssg71
g1947
sg64
(lp1954
g100
asbasbasbag57
(g73
g59
NtRp1955
(dp1956
g62
(dp1957
sg71
g1033
sg64
(lp1958
g57
(g78
g59
NtRp1959
(dp1960
g62
(dp1961
g82
g83
ssg71
g1955
sg64
(lp1962
S'wsgi_url_scheme'
p1963
asbag57
(g78
g59
NtRp1964
(dp1965
g62
(dp1966
g89
g90
ssg71
g1955
sg64
(lp1967
S':'
asbag57
(g78
g59
NtRp1968
(dp1969
g62
(dp1970
sg71
g1955
sg64
(lp1971
g57
(g58
g59
NtRp1972
(dp1973
g62
(dp1974
g70
I4
ssg71
g1968
sg64
(lp1975
S'http'
p1976
asbasbasbag57
(g73
g59
NtRp1977
(dp1978
g62
(dp1979
sg71
g1033
sg64
(lp1980
g57
(g78
g59
NtRp1981
(dp1982
g62
(dp1983
g82
g83
ssg71
g1977
sg64
(lp1984
S'wsgi_version'
p1985
asbag57
(g78
g59
NtRp1986
(dp1987
g62
(dp1988
g89
g90
ssg71
g1977
sg64
(lp1989
S':'
asbag57
(g78
g59
NtRp1990
(dp1991
g62
(dp1992
sg71
g1977
sg64
(lp1993
g57
(g58
g59
NtRp1994
(dp1995
g62
(dp1996
g70
I4
ssg71
g1990
sg64
(lp1997
g57
(g66
g59
NtRp1998
(dp1999
g62
(dp2000
g70
I3
ssg71
Nsg64
(lp2001
g57
(g73
g59
NtRp2002
(dp2003
g62
(dp2004
sg71
g1998
sg64
(lp2005
g57
(g78
g59
NtRp2006
(dp2007
g62
(dp2008
sg71
g2002
sg64
(lp2009
g57
(g58
g59
NtRp2010
(dp2011
g62
(dp2012
g70
I3
ssg71
g2006
sg64
(lp2013
S'1'
asbasbasbag57
(g73
g59
NtRp2014
(dp2015
g62
(dp2016
sg71
g1998
sg64
(lp2017
g57
(g78
g59
NtRp2018
(dp2019
g62
(dp2020
sg71
g2014
sg64
(lp2021
g57
(g58
g59
NtRp2022
(dp2023
g62
(dp2024
g70
I3
ssg71
g2018
sg64
(lp2025
S'0'
asbasbasbasbasbasbasbasbasbasbasbag57
(g73
g59
NtRp2026
(dp2027
g62
(dp2028
sg71
g67
sg64
(lp2029
g57
(g78
g59
NtRp2030
(dp2031
g62
(dp2032
g82
g83
ssg71
g2026
sg64
(lp2033
S'extension'
p2034
asbag57
(g78
g59
NtRp2035
(dp2036
g62
(dp2037
g89
g90
ssg71
g2026
sg64
(lp2038
S':'
asbag57
(g78
g59
NtRp2039
(dp2040
g62
(dp2041
sg71
g2026
sg64
(lp2042
g57
(g58
g59
NtRp2043
(dp2044
g62
(dp2045
g70
I5
ssg71
g2039
sg64
(lp2046
S'html'
p2047
asbasbasbag57
(g73
g59
NtRp2048
(dp2049
g62
(dp2050
sg71
g67
sg64
(lp2051
g57
(g78
g59
NtRp2052
(dp2053
g62
(dp2054
g82
g83
ssg71
g2048
sg64
(lp2055
S'folder'
p2056
asbag57
(g78
g59
NtRp2057
(dp2058
g62
(dp2059
g89
g90
ssg71
g2048
sg64
(lp2060
S':'
asbag57
(g78
g59
NtRp2061
(dp2062
g62
(dp2063
sg71
g2048
sg64
(lp2064
g57
(g58
g59
NtRp2065
(dp2066
g62
(dp2067
g70
I5
ssg71
g2061
sg64
(lp2068
S'/home/shipra/Desktop/Semester 1.2/ITWS-2/web2py/applications/shipra/'
p2069
asbasbasbag57
(g73
g59
NtRp2070
(dp2071
g62
(dp2072
sg71
g67
sg64
(lp2073
g57
(g78
g59
NtRp2074
(dp2075
g62
(dp2076
g82
g83
ssg71
g2070
sg64
(lp2077
S'function'
p2078
asbag57
(g78
g59
NtRp2079
(dp2080
g62
(dp2081
g89
g90
ssg71
g2070
sg64
(lp2082
S':'
asbag57
(g78
g59
NtRp2083
(dp2084
g62
(dp2085
sg71
g2070
sg64
(lp2086
g57
(g58
g59
NtRp2087
(dp2088
g62
(dp2089
g70
I5
ssg71
g2083
sg64
(lp2090
S'prin'
p2091
asbasbasbag57
(g73
g59
NtRp2092
(dp2093
g62
(dp2094
sg71
g67
sg64
(lp2095
g57
(g78
g59
NtRp2096
(dp2097
g62
(dp2098
g82
g83
ssg71
g2092
sg64
(lp2099
S'get_vars'
p2100
asbag57
(g78
g59
NtRp2101
(dp2102
g62
(dp2103
g89
g90
ssg71
g2092
sg64
(lp2104
S':'
asbag57
(g78
g59
NtRp2105
(dp2106
g62
(dp2107
sg71
g2092
sg64
(lp2108
g57
(g58
g59
NtRp2109
(dp2110
g62
(dp2111
g70
I5
ssg71
g2105
sg64
(lp2112
g57
(g66
g59
NtRp2113
(dp2114
g62
(dp2115
g70
I4
ssg71
Nsg64
(lp2116
sbasbasbasbag57
(g73
g59
NtRp2117
(dp2118
g62
(dp2119
sg71
g67
sg64
(lp2120
g57
(g78
g59
NtRp2121
(dp2122
g62
(dp2123
g82
g83
ssg71
g2117
sg64
(lp2124
S'global_settings'
p2125
asbag57
(g78
g59
NtRp2126
(dp2127
g62
(dp2128
g89
g90
ssg71
g2117
sg64
(lp2129
S':'
asbag57
(g78
g59
NtRp2130
(dp2131
g62
(dp2132
sg71
g2117
sg64
(lp2133
g57
(g58
g59
NtRp2134
(dp2135
g62
(dp2136
g70
I5
ssg71
g2130
sg64
(lp2137
g57
(g66
g59
NtRp2138
(dp2139
g62
(dp2140
g70
I4
ssg71
Nsg64
(lp2141
g57
(g73
g59
NtRp2142
(dp2143
g62
(dp2144
sg71
g2138
sg64
(lp2145
g57
(g78
g59
NtRp2146
(dp2147
g62
(dp2148
g82
g83
ssg71
g2142
sg64
(lp2149
g1045
asbag57
(g78
g59
NtRp2150
(dp2151
g62
(dp2152
g89
g90
ssg71
g2142
sg64
(lp2153
S':'
asbag57
(g78
g59
NtRp2154
(dp2155
g62
(dp2156
sg71
g2142
sg64
(lp2157
g57
(g58
g59
NtRp2158
(dp2159
g62
(dp2160
g70
I4
ssg71
g2154
sg64
(lp2161
S"set(['/home/shipra/Desktop/Semester 1.2/ITWS-2/web2py/applications/shipra/', '/home/shipra/Desktop/Semester 1.2/ITWS-2/web2py/applications/welcome/', '/home/shipra/Desktop/Semester 1.2/ITWS-2/web2py/applications/admin/'])"
p2162
asbasbasbag57
(g73
g59
NtRp2163
(dp2164
g62
(dp2165
sg71
g2138
sg64
(lp2166
g57
(g78
g59
NtRp2167
(dp2168
g62
(dp2169
g82
g83
ssg71
g2163
sg64
(lp2170
g1067
asbag57
(g78
g59
NtRp2171
(dp2172
g62
(dp2173
g89
g90
ssg71
g2163
sg64
(lp2174
S':'
asbag57
(g78
g59
NtRp2175
(dp2176
g62
(dp2177
sg71
g2163
sg64
(lp2178
g57
(g58
g59
NtRp2179
(dp2180
g62
(dp2181
g70
I4
ssg71
g2175
sg64
(lp2182
g1080
asbasbasbag57
(g73
g59
NtRp2183
(dp2184
g62
(dp2185
sg71
g2138
sg64
(lp2186
g57
(g78
g59
NtRp2187
(dp2188
g62
(dp2189
g82
g83
ssg71
g2183
sg64
(lp2190
g1089
asbag57
(g78
g59
NtRp2191
(dp2192
g62
(dp2193
g89
g90
ssg71
g2183
sg64
(lp2194
S':'
asbag57
(g78
g59
NtRp2195
(dp2196
g62
(dp2197
sg71
g2183
sg64
(lp2198
g57
(g58
g59
NtRp2199
(dp2200
g62
(dp2201
g70
I4
ssg71
g2195
sg64
(lp2202
g57
(g66
g59
NtRp2203
(dp2204
g62
(dp2205
g70
I3
ssg71
Nsg64
(lp2206
sbasbasbasbag57
(g73
g59
NtRp2207
(dp2208
g62
(dp2209
sg71
g2138
sg64
(lp2210
g57
(g78
g59
NtRp2211
(dp2212
g62
(dp2213
g82
g83
ssg71
g2207
sg64
(lp2214
g1114
asbag57
(g78
g59
NtRp2215
(dp2216
g62
(dp2217
g89
g90
ssg71
g2207
sg64
(lp2218
S':'
asbag57
(g78
g59
NtRp2219
(dp2220
g62
(dp2221
sg71
g2207
sg64
(lp2222
g57
(g58
g59
NtRp2223
(dp2224
g62
(dp2225
g70
I4
ssg71
g2219
sg64
(lp2226
S"<Values at 0x2611248: {'verbose': False, 'ip': '127.0.0.1', 'with_scheduler': False, 'ips': ['192.168.122.1'], 'shutdown_timeout': 5, 'taskbar': False, 'port': 8000, 'maxthreads': None, 'softcron': False, 'server_name': 'shipra', 'bpython': False, 'nogui': False, 'pid_filename': 'httpserver.pid', 'extcron': False, 'runcron': False, 'run_system_tests': False, 'test': None, 'folder': '/home/shipra/Desktop/Semester 1.2/ITWS-2/web2py', 'config': '', 'minthreads': None, 'winservice': '', 'shell': None, 'run': '', 'log_filename': 'httpserver.log', 'debuglevel': 30, 'args': [''], 'socket_timeout': 5, 'ssl_ca_certificate': None, 'scheduler': None, 'profiler_filename': None, 'ssl_private_key': '', 'scheduler_groups': None, 'password': '<ask>', 'request_queue_size': 5, 'ssl_certificate': '', 'cronjob': False, 'numthreads': None, 'quiet': False, 'interfaces': None, 'import_models': False, 'timeout': 10, 'plain': False, 'nobanner': False}>"
p2227
asbasbasbag57
(g73
g59
NtRp2228
(dp2229
g62
(dp2230
sg71
g2138
sg64
(lp2231
g57
(g78
g59
NtRp2232
(dp2233
g62
(dp2234
g82
g83
ssg71
g2228
sg64
(lp2235
g1136
asbag57
(g78
g59
NtRp2236
(dp2237
g62
(dp2238
g89
g90
ssg71
g2228
sg64
(lp2239
S':'
asbag57
(g78
g59
NtRp2240
(dp2241
g62
(dp2242
sg71
g2228
sg64
(lp2243
g57
(g58
g59
NtRp2244
(dp2245
g62
(dp2246
g70
I4
ssg71
g2240
sg64
(lp2247
S'set([])'
p2248
asbasbasbag57
(g73
g59
NtRp2249
(dp2250
g62
(dp2251
sg71
g2138
sg64
(lp2252
g57
(g78
g59
NtRp2253
(dp2254
g62
(dp2255
g82
g83
ssg71
g2249
sg64
(lp2256
g1158
asbag57
(g78
g59
NtRp2257
(dp2258
g62
(dp2259
g89
g90
ssg71
g2249
sg64
(lp2260
S':'
asbag57
(g78
g59
NtRp2261
(dp2262
g62
(dp2263
sg71
g2249
sg64
(lp2264
g57
(g58
g59
NtRp2265
(dp2266
g62
(dp2267
g70
I4
ssg71
g2261
sg64
(lp2268
g100
asbasbasbag57
(g73
g59
NtRp2269
(dp2270
g62
(dp2271
sg71
g2138
sg64
(lp2272
g57
(g78
g59
NtRp2273
(dp2274
g62
(dp2275
g82
g83
ssg71
g2269
sg64
(lp2276
g1179
asbag57
(g78
g59
NtRp2277
(dp2278
g62
(dp2279
g89
g90
ssg71
g2269
sg64
(lp2280
S':'
asbag57
(g78
g59
NtRp2281
(dp2282
g62
(dp2283
sg71
g2269
sg64
(lp2284
g57
(g58
g59
NtRp2285
(dp2286
g62
(dp2287
g70
I4
ssg71
g2281
sg64
(lp2288
g1192
asbasbasbag57
(g73
g59
NtRp2289
(dp2290
g62
(dp2291
sg71
g2138
sg64
(lp2292
g57
(g78
g59
NtRp2293
(dp2294
g62
(dp2295
g82
g83
ssg71
g2289
sg64
(lp2296
g1355
asbag57
(g78
g59
NtRp2297
(dp2298
g62
(dp2299
g89
g90
ssg71
g2289
sg64
(lp2300
S':'
asbag57
(g78
g59
NtRp2301
(dp2302
g62
(dp2303
sg71
g2289
sg64
(lp2304
g57
(g58
g59
NtRp2305
(dp2306
g62
(dp2307
g70
I4
ssg71
g2301
sg64
(lp2308
g100
asbasbasbag57
(g73
g59
NtRp2309
(dp2310
g62
(dp2311
sg71
g2138
sg64
(lp2312
g57
(g78
g59
NtRp2313
(dp2314
g62
(dp2315
g82
g83
ssg71
g2309
sg64
(lp2316
g1376
asbag57
(g78
g59
NtRp2317
(dp2318
g62
(dp2319
g89
g90
ssg71
g2309
sg64
(lp2320
S':'
asbag57
(g78
g59
NtRp2321
(dp2322
g62
(dp2323
sg71
g2309
sg64
(lp2324
g57
(g58
g59
NtRp2325
(dp2326
g62
(dp2327
g70
I4
ssg71
g2321
sg64
(lp2328
g100
asbasbasbag57
(g73
g59
NtRp2329
(dp2330
g62
(dp2331
sg71
g2138
sg64
(lp2332
g57
(g78
g59
NtRp2333
(dp2334
g62
(dp2335
g82
g83
ssg71
g2329
sg64
(lp2336
g1397
asbag57
(g78
g59
NtRp2337
(dp2338
g62
(dp2339
g89
g90
ssg71
g2329
sg64
(lp2340
S':'
asbag57
(g78
g59
NtRp2341
(dp2342
g62
(dp2343
sg71
g2329
sg64
(lp2344
g57
(g58
g59
NtRp2345
(dp2346
g62
(dp2347
g70
I4
ssg71
g2341
sg64
(lp2348
g57
(g66
g59
NtRp2349
(dp2350
g62
(dp2351
g70
I3
ssg71
Nsg64
(lp2352
g57
(g73
g59
NtRp2353
(dp2354
g62
(dp2355
sg71
g2349
sg64
(lp2356
g57
(g78
g59
NtRp2357
(dp2358
g62
(dp2359
sg71
g2353
sg64
(lp2360
g57
(g58
g59
NtRp2361
(dp2362
g62
(dp2363
g70
I3
ssg71
g2357
sg64
(lp2364
g1426
asbasbasbag57
(g73
g59
NtRp2365
(dp2366
g62
(dp2367
sg71
g2349
sg64
(lp2368
g57
(g78
g59
NtRp2369
(dp2370
g62
(dp2371
sg71
g2365
sg64
(lp2372
g57
(g58
g59
NtRp2373
(dp2374
g62
(dp2375
g70
I3
ssg71
g2369
sg64
(lp2376
g1439
asbasbasbag57
(g73
g59
NtRp2377
(dp2378
g62
(dp2379
sg71
g2349
sg64
(lp2380
g57
(g78
g59
NtRp2381
(dp2382
g62
(dp2383
sg71
g2377
sg64
(lp2384
g57
(g58
g59
NtRp2385
(dp2386
g62
(dp2387
g70
I3
ssg71
g2381
sg64
(lp2388
g1452
asbasbasbag57
(g73
g59
NtRp2389
(dp2390
g62
(dp2391
sg71
g2349
sg64
(lp2392
g57
(g78
g59
NtRp2393
(dp2394
g62
(dp2395
sg71
g2389
sg64
(lp2396
g57
(g58
g59
NtRp2397
(dp2398
g62
(dp2399
g70
I3
ssg71
g2393
sg64
(lp2400
g1465
asbasbasbag57
(g73
g59
NtRp2401
(dp2402
g62
(dp2403
sg71
g2349
sg64
(lp2404
g57
(g78
g59
NtRp2405
(dp2406
g62
(dp2407
sg71
g2401
sg64
(lp2408
g57
(g58
g59
NtRp2409
(dp2410
g62
(dp2411
g70
I3
ssg71
g2405
sg64
(lp2412
g1478
asbasbasbasbasbasbasbag57
(g73
g59
NtRp2413
(dp2414
g62
(dp2415
sg71
g2138
sg64
(lp2416
g57
(g78
g59
NtRp2417
(dp2418
g62
(dp2419
g82
g83
ssg71
g2413
sg64
(lp2420
g1746
asbag57
(g78
g59
NtRp2421
(dp2422
g62
(dp2423
g89
g90
ssg71
g2413
sg64
(lp2424
S':'
asbag57
(g78
g59
NtRp2425
(dp2426
g62
(dp2427
sg71
g2413
sg64
(lp2428
g57
(g58
g59
NtRp2429
(dp2430
g62
(dp2431
g70
I4
ssg71
g2425
sg64
(lp2432
g57
(g66
g59
NtRp2433
(dp2434
g62
(dp2435
g70
I3
ssg71
Nsg64
(lp2436
g57
(g73
g59
NtRp2437
(dp2438
g62
(dp2439
sg71
g2433
sg64
(lp2440
g57
(g78
g59
NtRp2441
(dp2442
g62
(dp2443
sg71
g2437
sg64
(lp2444
g57
(g58
g59
NtRp2445
(dp2446
g62
(dp2447
g70
I3
ssg71
g2441
sg64
(lp2448
S'2'
asbasbasbag57
(g73
g59
NtRp2449
(dp2450
g62
(dp2451
sg71
g2433
sg64
(lp2452
g57
(g78
g59
NtRp2453
(dp2454
g62
(dp2455
sg71
g2449
sg64
(lp2456
g57
(g58
g59
NtRp2457
(dp2458
g62
(dp2459
g70
I3
ssg71
g2453
sg64
(lp2460
S'3'
asbasbasbag57
(g73
g59
NtRp2461
(dp2462
g62
(dp2463
sg71
g2433
sg64
(lp2464
g57
(g78
g59
NtRp2465
(dp2466
g62
(dp2467
sg71
g2461
sg64
(lp2468
g57
(g58
g59
NtRp2469
(dp2470
g62
(dp2471
g70
I3
ssg71
g2465
sg64
(lp2472
S'2'
asbasbasbag57
(g73
g59
NtRp2473
(dp2474
g62
(dp2475
sg71
g2433
sg64
(lp2476
g57
(g78
g59
NtRp2477
(dp2478
g62
(dp2479
sg71
g2473
sg64
(lp2480
g57
(g58
g59
NtRp2481
(dp2482
g62
(dp2483
g70
I3
ssg71
g2477
sg64
(lp2484
S'datetime.datetime(2012, 12, 17, 15, 3, 30)'
p2485
asbasbasbag57
(g73
g59
NtRp2486
(dp2487
g62
(dp2488
sg71
g2433
sg64
(lp2489
g57
(g78
g59
NtRp2490
(dp2491
g62
(dp2492
sg71
g2486
sg64
(lp2493
g57
(g58
g59
NtRp2494
(dp2495
g62
(dp2496
g70
I3
ssg71
g2490
sg64
(lp2497
g1824
asbasbasbasbasbasbasbasbasbasbasbag57
(g73
g59
NtRp2498
(dp2499
g62
(dp2500
sg71
g67
sg64
(lp2501
g57
(g78
g59
NtRp2502
(dp2503
g62
(dp2504
g82
g83
ssg71
g2498
sg64
(lp2505
S'is_https'
p2506
asbag57
(g78
g59
NtRp2507
(dp2508
g62
(dp2509
g89
g90
ssg71
g2498
sg64
(lp2510
S':'
asbag57
(g78
g59
NtRp2511
(dp2512
g62
(dp2513
sg71
g2498
sg64
(lp2514
g57
(g58
g59
NtRp2515
(dp2516
g62
(dp2517
g70
I5
ssg71
g2511
sg64
(lp2518
g100
asbasbasbag57
(g73
g59
NtRp2519
(dp2520
g62
(dp2521
sg71
g67
sg64
(lp2522
g57
(g78
g59
NtRp2523
(dp2524
g62
(dp2525
g82
g83
ssg71
g2519
sg64
(lp2526
S'is_local'
p2527
asbag57
(g78
g59
NtRp2528
(dp2529
g62
(dp2530
g89
g90
ssg71
g2519
sg64
(lp2531
S':'
asbag57
(g78
g59
NtRp2532
(dp2533
g62
(dp2534
sg71
g2519
sg64
(lp2535
g57
(g58
g59
NtRp2536
(dp2537
g62
(dp2538
g70
I5
ssg71
g2532
sg64
(lp2539
g1933
asbasbasbag57
(g73
g59
NtRp2540
(dp2541
g62
(dp2542
sg71
g67
sg64
(lp2543
g57
(g78
g59
NtRp2544
(dp2545
g62
(dp2546
g82
g83
ssg71
g2540
sg64
(lp2547
S'is_restful'
p2548
asbag57
(g78
g59
NtRp2549
(dp2550
g62
(dp2551
g89
g90
ssg71
g2540
sg64
(lp2552
S':'
asbag57
(g78
g59
NtRp2553
(dp2554
g62
(dp2555
sg71
g2540
sg64
(lp2556
g57
(g58
g59
NtRp2557
(dp2558
g62
(dp2559
g70
I5
ssg71
g2553
sg64
(lp2560
g100
asbasbasbag57
(g73
g59
NtRp2561
(dp2562
g62
(dp2563
sg71
g67
sg64
(lp2564
g57
(g78
g59
NtRp2565
(dp2566
g62
(dp2567
g82
g83
ssg71
g2561
sg64
(lp2568
S'now'
p2569
asbag57
(g78
g59
NtRp2570
(dp2571
g62
(dp2572
g89
g90
ssg71
g2561
sg64
(lp2573
S':'
asbag57
(g78
g59
NtRp2574
(dp2575
g62
(dp2576
sg71
g2561
sg64
(lp2577
g57
(g58
g59
NtRp2578
(dp2579
g62
(dp2580
g70
I5
ssg71
g2574
sg64
(lp2581
S'datetime.datetime(2013, 4, 1, 23, 18, 23, 946932)'
p2582
asbasbasbag57
(g73
g59
NtRp2583
(dp2584
g62
(dp2585
sg71
g67
sg64
(lp2586
g57
(g78
g59
NtRp2587
(dp2588
g62
(dp2589
g82
g83
ssg71
g2583
sg64
(lp2590
S'post_vars'
p2591
asbag57
(g78
g59
NtRp2592
(dp2593
g62
(dp2594
g89
g90
ssg71
g2583
sg64
(lp2595
S':'
asbag57
(g78
g59
NtRp2596
(dp2597
g62
(dp2598
sg71
g2583
sg64
(lp2599
g57
(g58
g59
NtRp2600
(dp2601
g62
(dp2602
g70
I5
ssg71
g2596
sg64
(lp2603
g57
(g66
g59
NtRp2604
(dp2605
g62
(dp2606
g70
I4
ssg71
Nsg64
(lp2607
sbasbasbasbag57
(g73
g59
NtRp2608
(dp2609
g62
(dp2610
sg71
g67
sg64
(lp2611
g57
(g78
g59
NtRp2612
(dp2613
g62
(dp2614
g82
g83
ssg71
g2608
sg64
(lp2615
S'raw_args'
p2616
asbag57
(g78
g59
NtRp2617
(dp2618
g62
(dp2619
g89
g90
ssg71
g2608
sg64
(lp2620
S':'
asbag57
(g78
g59
NtRp2621
(dp2622
g62
(dp2623
sg71
g2608
sg64
(lp2624
g57
(g58
g59
NtRp2625
(dp2626
g62
(dp2627
g70
I5
ssg71
g2621
sg64
(lp2628
S''
asbasbasbag57
(g73
g59
NtRp2629
(dp2630
g62
(dp2631
sg71
g67
sg64
(lp2632
g57
(g78
g59
NtRp2633
(dp2634
g62
(dp2635
g82
g83
ssg71
g2629
sg64
(lp2636
S'raw_extension'
p2637
asbag57
(g78
g59
NtRp2638
(dp2639
g62
(dp2640
g89
g90
ssg71
g2629
sg64
(lp2641
S':'
asbag57
(g78
g59
NtRp2642
(dp2643
g62
(dp2644
sg71
g2629
sg64
(lp2645
g57
(g58
g59
NtRp2646
(dp2647
g62
(dp2648
g70
I5
ssg71
g2642
sg64
(lp2649
S'None'
p2650
asbasbasbag57
(g73
g59
NtRp2651
(dp2652
g62
(dp2653
sg71
g67
sg64
(lp2654
g57
(g78
g59
NtRp2655
(dp2656
g62
(dp2657
g82
g83
ssg71
g2651
sg64
(lp2658
S'url'
p2659
asbag57
(g78
g59
NtRp2660
(dp2661
g62
(dp2662
g89
g90
ssg71
g2651
sg64
(lp2663
S':'
asbag57
(g78
g59
NtRp2664
(dp2665
g62
(dp2666
sg71
g2651
sg64
(lp2667
g57
(g58
g59
NtRp2668
(dp2669
g62
(dp2670
g70
I5
ssg71
g2664
sg64
(lp2671
g1500
asbasbasbag57
(g73
g59
NtRp2672
(dp2673
g62
(dp2674
sg71
g67
sg64
(lp2675
g57
(g78
g59
NtRp2676
(dp2677
g62
(dp2678
g82
g83
ssg71
g2672
sg64
(lp2679
S'utcnow'
p2680
asbag57
(g78
g59
NtRp2681
(dp2682
g62
(dp2683
g89
g90
ssg71
g2672
sg64
(lp2684
S':'
asbag57
(g78
g59
NtRp2685
(dp2686
g62
(dp2687
sg71
g2672
sg64
(lp2688
g57
(g58
g59
NtRp2689
(dp2690
g62
(dp2691
g70
I5
ssg71
g2685
sg64
(lp2692
S'datetime.datetime(2013, 4, 1, 17, 48, 23, 946957)'
p2693
asbasbasbag57
(g73
g59
NtRp2694
(dp2695
g62
(dp2696
sg71
g67
sg64
(lp2697
g57
(g78
g59
NtRp2698
(dp2699
g62
(dp2700
g82
g83
ssg71
g2694
sg64
(lp2701
S'uuid'
p2702
asbag57
(g78
g59
NtRp2703
(dp2704
g62
(dp2705
g89
g90
ssg71
g2694
sg64
(lp2706
S':'
asbag57
(g78
g59
NtRp2707
(dp2708
g62
(dp2709
sg71
g2694
sg64
(lp2710
g57
(g58
g59
NtRp2711
(dp2712
g62
(dp2713
g70
I5
ssg71
g2707
sg64
(lp2714
S'shipra/127.0.0.1.2013-04-01.23-18-23.71196f23-84a3-4fbf-bcdf-6234ad8b2b3e'
p2715
asbasbasbag57
(g73
g59
NtRp2716
(dp2717
g62
(dp2718
sg71
g67
sg64
(lp2719
g57
(g78
g59
NtRp2720
(dp2721
g62
(dp2722
g82
g83
ssg71
g2716
sg64
(lp2723
S'vars'
p2724
asbag57
(g78
g59
NtRp2725
(dp2726
g62
(dp2727
g89
g90
ssg71
g2716
sg64
(lp2728
S':'
asbag57
(g78
g59
NtRp2729
(dp2730
g62
(dp2731
sg71
g2716
sg64
(lp2732
g57
(g58
g59
NtRp2733
(dp2734
g62
(dp2735
g70
I5
ssg71
g2729
sg64
(lp2736
g57
(g66
g59
NtRp2737
(dp2738
g62
(dp2739
g70
I4
ssg71
Nsg64
(lp2740
sbasbasbasbag57
(g73
g59
NtRp2741
(dp2742
g62
(dp2743
sg71
g67
sg64
(lp2744
g57
(g78
g59
NtRp2745
(dp2746
g62
(dp2747
g82
g83
ssg71
g2741
sg64
(lp2748
S'wsgi'
p2749
asbag57
(g78
g59
NtRp2750
(dp2751
g62
(dp2752
g89
g90
ssg71
g2741
sg64
(lp2753
S':'
asbag57
(g78
g59
NtRp2754
(dp2755
g62
(dp2756
sg71
g2741
sg64
(lp2757
g57
(g58
g59
NtRp2758
(dp2759
g62
(dp2760
g70
I5
ssg71
g2754
sg64
(lp2761
g57
(g66
g59
NtRp2762
(dp2763
g62
(dp2764
g70
I4
ssg71
Nsg64
(lp2765
g57
(g73
g59
NtRp2766
(dp2767
g62
(dp2768
sg71
g2762
sg64
(lp2769
g57
(g78
g59
NtRp2770
(dp2771
g62
(dp2772
g82
g83
ssg71
g2766
sg64
(lp2773
S'environ'
p2774
asbag57
(g78
g59
NtRp2775
(dp2776
g62
(dp2777
g89
g90
ssg71
g2766
sg64
(lp2778
S':'
asbag57
(g78
g59
NtRp2779
(dp2780
g62
(dp2781
sg71
g2766
sg64
(lp2782
g57
(g58
g59
NtRp2783
(dp2784
g62
(dp2785
g70
I4
ssg71
g2779
sg64
(lp2786
g57
(g66
g59
NtRp2787
(dp2788
g62
(dp2789
g70
I3
ssg71
Nsg64
(lp2790
g57
(g73
g59
NtRp2791
(dp2792
g62
(dp2793
sg71
g2787
sg64
(lp2794
g57
(g78
g59
NtRp2795
(dp2796
g62
(dp2797
g82
g83
ssg71
g2791
sg64
(lp2798
S'HTTP_ACCEPT'
p2799
asbag57
(g78
g59
NtRp2800
(dp2801
g62
(dp2802
g89
g90
ssg71
g2791
sg64
(lp2803
S':'
asbag57
(g78
g59
NtRp2804
(dp2805
g62
(dp2806
sg71
g2791
sg64
(lp2807
g57
(g58
g59
NtRp2808
(dp2809
g62
(dp2810
g70
I3
ssg71
g2804
sg64
(lp2811
g1214
asbasbasbag57
(g73
g59
NtRp2812
(dp2813
g62
(dp2814
sg71
g2787
sg64
(lp2815
g57
(g78
g59
NtRp2816
(dp2817
g62
(dp2818
g82
g83
ssg71
g2812
sg64
(lp2819
S'HTTP_ACCEPT_ENCODING'
p2820
asbag57
(g78
g59
NtRp2821
(dp2822
g62
(dp2823
g89
g90
ssg71
g2812
sg64
(lp2824
S':'
asbag57
(g78
g59
NtRp2825
(dp2826
g62
(dp2827
sg71
g2812
sg64
(lp2828
g57
(g58
g59
NtRp2829
(dp2830
g62
(dp2831
g70
I3
ssg71
g2825
sg64
(lp2832
g1236
asbasbasbag57
(g73
g59
NtRp2833
(dp2834
g62
(dp2835
sg71
g2787
sg64
(lp2836
g57
(g78
g59
NtRp2837
(dp2838
g62
(dp2839
g82
g83
ssg71
g2833
sg64
(lp2840
S'HTTP_ACCEPT_LANGUAGE'
p2841
asbag57
(g78
g59
NtRp2842
(dp2843
g62
(dp2844
g89
g90
ssg71
g2833
sg64
(lp2845
S':'
asbag57
(g78
g59
NtRp2846
(dp2847
g62
(dp2848
sg71
g2833
sg64
(lp2849
g57
(g58
g59
NtRp2850
(dp2851
g62
(dp2852
g70
I3
ssg71
g2846
sg64
(lp2853
g1258
asbasbasbag57
(g73
g59
NtRp2854
(dp2855
g62
(dp2856
sg71
g2787
sg64
(lp2857
g57
(g78
g59
NtRp2858
(dp2859
g62
(dp2860
g82
g83
ssg71
g2854
sg64
(lp2861
S'HTTP_CONNECTION'
p2862
asbag57
(g78
g59
NtRp2863
(dp2864
g62
(dp2865
g89
g90
ssg71
g2854
sg64
(lp2866
S':'
asbag57
(g78
g59
NtRp2867
(dp2868
g62
(dp2869
sg71
g2854
sg64
(lp2870
g57
(g58
g59
NtRp2871
(dp2872
g62
(dp2873
g70
I3
ssg71
g2867
sg64
(lp2874
g1280
asbasbasbag57
(g73
g59
NtRp2875
(dp2876
g62
(dp2877
sg71
g2787
sg64
(lp2878
g57
(g78
g59
NtRp2879
(dp2880
g62
(dp2881
g82
g83
ssg71
g2875
sg64
(lp2882
S'HTTP_COOKIE'
p2883
asbag57
(g78
g59
NtRp2884
(dp2885
g62
(dp2886
g89
g90
ssg71
g2875
sg64
(lp2887
S':'
asbag57
(g78
g59
NtRp2888
(dp2889
g62
(dp2890
sg71
g2875
sg64
(lp2891
g57
(g58
g59
NtRp2892
(dp2893
g62
(dp2894
g70
I3
ssg71
g2888
sg64
(lp2895
g1302
asbasbasbag57
(g73
g59
NtRp2896
(dp2897
g62
(dp2898
sg71
g2787
sg64
(lp2899
g57
(g78
g59
NtRp2900
(dp2901
g62
(dp2902
g82
g83
ssg71
g2896
sg64
(lp2903
S'HTTP_HOST'
p2904
asbag57
(g78
g59
NtRp2905
(dp2906
g62
(dp2907
g89
g90
ssg71
g2896
sg64
(lp2908
S':'
asbag57
(g78
g59
NtRp2909
(dp2910
g62
(dp2911
sg71
g2896
sg64
(lp2912
g57
(g58
g59
NtRp2913
(dp2914
g62
(dp2915
g70
I3
ssg71
g2909
sg64
(lp2916
g1324
asbasbasbag57
(g73
g59
NtRp2917
(dp2918
g62
(dp2919
sg71
g2787
sg64
(lp2920
g57
(g78
g59
NtRp2921
(dp2922
g62
(dp2923
g82
g83
ssg71
g2917
sg64
(lp2924
S'HTTP_USER_AGENT'
p2925
asbag57
(g78
g59
NtRp2926
(dp2927
g62
(dp2928
g89
g90
ssg71
g2917
sg64
(lp2929
S':'
asbag57
(g78
g59
NtRp2930
(dp2931
g62
(dp2932
sg71
g2917
sg64
(lp2933
g57
(g58
g59
NtRp2934
(dp2935
g62
(dp2936
g70
I3
ssg71
g2930
sg64
(lp2937
g1346
asbasbasbag57
(g73
g59
NtRp2938
(dp2939
g62
(dp2940
sg71
g2787
sg64
(lp2941
g57
(g78
g59
NtRp2942
(dp2943
g62
(dp2944
g82
g83
ssg71
g2938
sg64
(lp2945
S'PATH_INFO'
p2946
asbag57
(g78
g59
NtRp2947
(dp2948
g62
(dp2949
g89
g90
ssg71
g2938
sg64
(lp2950
S':'
asbag57
(g78
g59
NtRp2951
(dp2952
g62
(dp2953
sg71
g2938
sg64
(lp2954
g57
(g58
g59
NtRp2955
(dp2956
g62
(dp2957
g70
I3
ssg71
g2951
sg64
(lp2958
g1500
asbasbasbag57
(g73
g59
NtRp2959
(dp2960
g62
(dp2961
sg71
g2787
sg64
(lp2962
g57
(g78
g59
NtRp2963
(dp2964
g62
(dp2965
g82
g83
ssg71
g2959
sg64
(lp2966
S'QUERY_STRING'
p2967
asbag57
(g78
g59
NtRp2968
(dp2969
g62
(dp2970
g89
g90
ssg71
g2959
sg64
(lp2971
S':'
asbag57
(g78
g59
NtRp2972
(dp2973
g62
(dp2974
sg71
g2959
sg64
(lp2975
g57
(g58
g59
NtRp2976
(dp2977
g62
(dp2978
g70
I3
ssg71
g2972
sg64
(lp2979
S''
asbasbasbag57
(g73
g59
NtRp2980
(dp2981
g62
(dp2982
sg71
g2787
sg64
(lp2983
g57
(g78
g59
NtRp2984
(dp2985
g62
(dp2986
g82
g83
ssg71
g2980
sg64
(lp2987
S'REMOTE_ADDR'
p2988
asbag57
(g78
g59
NtRp2989
(dp2990
g62
(dp2991
g89
g90
ssg71
g2980
sg64
(lp2992
S':'
asbag57
(g78
g59
NtRp2993
(dp2994
g62
(dp2995
sg71
g2980
sg64
(lp2996
g57
(g58
g59
NtRp2997
(dp2998
g62
(dp2999
g70
I3
ssg71
g2993
sg64
(lp3000
g212
asbasbasbag57
(g73
g59
NtRp3001
(dp3002
g62
(dp3003
sg71
g2787
sg64
(lp3004
g57
(g78
g59
NtRp3005
(dp3006
g62
(dp3007
g82
g83
ssg71
g3001
sg64
(lp3008
S'REMOTE_PORT'
p3009
asbag57
(g78
g59
NtRp3010
(dp3011
g62
(dp3012
g89
g90
ssg71
g3001
sg64
(lp3013
S':'
asbag57
(g78
g59
NtRp3014
(dp3015
g62
(dp3016
sg71
g3001
sg64
(lp3017
g57
(g58
g59
NtRp3018
(dp3019
g62
(dp3020
g70
I3
ssg71
g3014
sg64
(lp3021
g1564
asbasbasbag57
(g73
g59
NtRp3022
(dp3023
g62
(dp3024
sg71
g2787
sg64
(lp3025
g57
(g78
g59
NtRp3026
(dp3027
g62
(dp3028
g82
g83
ssg71
g3022
sg64
(lp3029
S'REQUEST_METHOD'
p3030
asbag57
(g78
g59
NtRp3031
(dp3032
g62
(dp3033
g89
g90
ssg71
g3022
sg64
(lp3034
S':'
asbag57
(g78
g59
NtRp3035
(dp3036
g62
(dp3037
sg71
g3022
sg64
(lp3038
g57
(g58
g59
NtRp3039
(dp3040
g62
(dp3041
g70
I3
ssg71
g3035
sg64
(lp3042
g1586
asbasbasbag57
(g73
g59
NtRp3043
(dp3044
g62
(dp3045
sg71
g2787
sg64
(lp3046
g57
(g78
g59
NtRp3047
(dp3048
g62
(dp3049
g82
g83
ssg71
g3043
sg64
(lp3050
S'REQUEST_URI'
p3051
asbag57
(g78
g59
NtRp3052
(dp3053
g62
(dp3054
g89
g90
ssg71
g3043
sg64
(lp3055
S':'
asbag57
(g78
g59
NtRp3056
(dp3057
g62
(dp3058
sg71
g3043
sg64
(lp3059
g57
(g58
g59
NtRp3060
(dp3061
g62
(dp3062
g70
I3
ssg71
g3056
sg64
(lp3063
g1500
asbasbasbag57
(g73
g59
NtRp3064
(dp3065
g62
(dp3066
sg71
g2787
sg64
(lp3067
g57
(g78
g59
NtRp3068
(dp3069
g62
(dp3070
g82
g83
ssg71
g3064
sg64
(lp3071
S'SCRIPT_NAME'
p3072
asbag57
(g78
g59
NtRp3073
(dp3074
g62
(dp3075
g89
g90
ssg71
g3064
sg64
(lp3076
S':'
asbag57
(g78
g59
NtRp3077
(dp3078
g62
(dp3079
sg71
g3064
sg64
(lp3080
g57
(g58
g59
NtRp3081
(dp3082
g62
(dp3083
g70
I3
ssg71
g3077
sg64
(lp3084
S''
asbasbasbag57
(g73
g59
NtRp3085
(dp3086
g62
(dp3087
sg71
g2787
sg64
(lp3088
g57
(g78
g59
NtRp3089
(dp3090
g62
(dp3091
g82
g83
ssg71
g3085
sg64
(lp3092
S'SERVER_NAME'
p3093
asbag57
(g78
g59
NtRp3094
(dp3095
g62
(dp3096
g89
g90
ssg71
g3085
sg64
(lp3097
S':'
asbag57
(g78
g59
NtRp3098
(dp3099
g62
(dp3100
sg71
g3085
sg64
(lp3101
g57
(g58
g59
NtRp3102
(dp3103
g62
(dp3104
g70
I3
ssg71
g3098
sg64
(lp3105
g1650
asbasbasbag57
(g73
g59
NtRp3106
(dp3107
g62
(dp3108
sg71
g2787
sg64
(lp3109
g57
(g78
g59
NtRp3110
(dp3111
g62
(dp3112
g82
g83
ssg71
g3106
sg64
(lp3113
S'SERVER_PORT'
p3114
asbag57
(g78
g59
NtRp3115
(dp3116
g62
(dp3117
g89
g90
ssg71
g3106
sg64
(lp3118
S':'
asbag57
(g78
g59
NtRp3119
(dp3120
g62
(dp3121
sg71
g3106
sg64
(lp3122
g57
(g58
g59
NtRp3123
(dp3124
g62
(dp3125
g70
I3
ssg71
g3119
sg64
(lp3126
g1672
asbasbasbag57
(g73
g59
NtRp3127
(dp3128
g62
(dp3129
sg71
g2787
sg64
(lp3130
g57
(g78
g59
NtRp3131
(dp3132
g62
(dp3133
g82
g83
ssg71
g3127
sg64
(lp3134
S'SERVER_PROTOCOL'
p3135
asbag57
(g78
g59
NtRp3136
(dp3137
g62
(dp3138
g89
g90
ssg71
g3127
sg64
(lp3139
S':'
asbag57
(g78
g59
NtRp3140
(dp3141
g62
(dp3142
sg71
g3127
sg64
(lp3143
g57
(g58
g59
NtRp3144
(dp3145
g62
(dp3146
g70
I3
ssg71
g3140
sg64
(lp3147
g1694
asbasbasbag57
(g73
g59
NtRp3148
(dp3149
g62
(dp3150
sg71
g2787
sg64
(lp3151
g57
(g78
g59
NtRp3152
(dp3153
g62
(dp3154
g82
g83
ssg71
g3148
sg64
(lp3155
S'SERVER_SOFTWARE'
p3156
asbag57
(g78
g59
NtRp3157
(dp3158
g62
(dp3159
g89
g90
ssg71
g3148
sg64
(lp3160
S':'
asbag57
(g78
g59
NtRp3161
(dp3162
g62
(dp3163
sg71
g3148
sg64
(lp3164
g57
(g58
g59
NtRp3165
(dp3166
g62
(dp3167
g70
I3
ssg71
g3161
sg64
(lp3168
g1716
asbasbasbag57
(g73
g59
NtRp3169
(dp3170
g62
(dp3171
sg71
g2787
sg64
(lp3172
g57
(g78
g59
NtRp3173
(dp3174
g62
(dp3175
g82
g83
ssg71
g3169
sg64
(lp3176
S'wsgi.errors'
p3177
asbag57
(g78
g59
NtRp3178
(dp3179
g62
(dp3180
g89
g90
ssg71
g3169
sg64
(lp3181
S':'
asbag57
(g78
g59
NtRp3182
(dp3183
g62
(dp3184
sg71
g3169
sg64
(lp3185
g57
(g58
g59
NtRp3186
(dp3187
g62
(dp3188
g70
I3
ssg71
g3182
sg64
(lp3189
S"<open file '<stderr>', mode 'w' at 0x7f813e4ad270>"
p3190
asbasbasbag57
(g73
g59
NtRp3191
(dp3192
g62
(dp3193
sg71
g2787
sg64
(lp3194
g57
(g78
g59
NtRp3195
(dp3196
g62
(dp3197
g82
g83
ssg71
g3191
sg64
(lp3198
S'wsgi.file_wrapper'
p3199
asbag57
(g78
g59
NtRp3200
(dp3201
g62
(dp3202
g89
g90
ssg71
g3191
sg64
(lp3203
S':'
asbag57
(g78
g59
NtRp3204
(dp3205
g62
(dp3206
sg71
g3191
sg64
(lp3207
g57
(g58
g59
NtRp3208
(dp3209
g62
(dp3210
g70
I3
ssg71
g3204
sg64
(lp3211
S'<class wsgiref.util.FileWrapper at 0x259adb8>'
p3212
asbasbasbag57
(g73
g59
NtRp3213
(dp3214
g62
(dp3215
sg71
g2787
sg64
(lp3216
g57
(g78
g59
NtRp3217
(dp3218
g62
(dp3219
g82
g83
ssg71
g3213
sg64
(lp3220
S'wsgi.input'
p3221
asbag57
(g78
g59
NtRp3222
(dp3223
g62
(dp3224
g89
g90
ssg71
g3213
sg64
(lp3225
S':'
asbag57
(g78
g59
NtRp3226
(dp3227
g62
(dp3228
sg71
g3213
sg64
(lp3229
g57
(g58
g59
NtRp3230
(dp3231
g62
(dp3232
g70
I3
ssg71
g3226
sg64
(lp3233
S'<cStringIO.StringO object at 0x7f81042feed8>'
p3234
asbasbasbag57
(g73
g59
NtRp3235
(dp3236
g62
(dp3237
sg71
g2787
sg64
(lp3238
g57
(g78
g59
NtRp3239
(dp3240
g62
(dp3241
g82
g83
ssg71
g3235
sg64
(lp3242
S'wsgi.multiprocess'
p3243
asbag57
(g78
g59
NtRp3244
(dp3245
g62
(dp3246
g89
g90
ssg71
g3235
sg64
(lp3247
S':'
asbag57
(g78
g59
NtRp3248
(dp3249
g62
(dp3250
sg71
g3235
sg64
(lp3251
g57
(g58
g59
NtRp3252
(dp3253
g62
(dp3254
g70
I3
ssg71
g3248
sg64
(lp3255
g100
asbasbasbag57
(g73
g59
NtRp3256
(dp3257
g62
(dp3258
sg71
g2787
sg64
(lp3259
g57
(g78
g59
NtRp3260
(dp3261
g62
(dp3262
g82
g83
ssg71
g3256
sg64
(lp3263
S'wsgi.multithread'
p3264
asbag57
(g78
g59
NtRp3265
(dp3266
g62
(dp3267
g89
g90
ssg71
g3256
sg64
(lp3268
S':'
asbag57
(g78
g59
NtRp3269
(dp3270
g62
(dp3271
sg71
g3256
sg64
(lp3272
g57
(g58
g59
NtRp3273
(dp3274
g62
(dp3275
g70
I3
ssg71
g3269
sg64
(lp3276
g1933
asbasbasbag57
(g73
g59
NtRp3277
(dp3278
g62
(dp3279
sg71
g2787
sg64
(lp3280
g57
(g78
g59
NtRp3281
(dp3282
g62
(dp3283
g82
g83
ssg71
g3277
sg64
(lp3284
S'wsgi.run_once'
p3285
asbag57
(g78
g59
NtRp3286
(dp3287
g62
(dp3288
g89
g90
ssg71
g3277
sg64
(lp3289
S':'
asbag57
(g78
g59
NtRp3290
(dp3291
g62
(dp3292
sg71
g3277
sg64
(lp3293
g57
(g58
g59
NtRp3294
(dp3295
g62
(dp3296
g70
I3
ssg71
g3290
sg64
(lp3297
g100
asbasbasbag57
(g73
g59
NtRp3298
(dp3299
g62
(dp3300
sg71
g2787
sg64
(lp3301
g57
(g78
g59
NtRp3302
(dp3303
g62
(dp3304
g82
g83
ssg71
g3298
sg64
(lp3305
S'wsgi.url_scheme'
p3306
asbag57
(g78
g59
NtRp3307
(dp3308
g62
(dp3309
g89
g90
ssg71
g3298
sg64
(lp3310
S':'
asbag57
(g78
g59
NtRp3311
(dp3312
g62
(dp3313
sg71
g3298
sg64
(lp3314
g57
(g58
g59
NtRp3315
(dp3316
g62
(dp3317
g70
I3
ssg71
g3311
sg64
(lp3318
g1976
asbasbasbag57
(g73
g59
NtRp3319
(dp3320
g62
(dp3321
sg71
g2787
sg64
(lp3322
g57
(g78
g59
NtRp3323
(dp3324
g62
(dp3325
g82
g83
ssg71
g3319
sg64
(lp3326
S'wsgi.version'
p3327
asbag57
(g78
g59
NtRp3328
(dp3329
g62
(dp3330
g89
g90
ssg71
g3319
sg64
(lp3331
S':'
asbag57
(g78
g59
NtRp3332
(dp3333
g62
(dp3334
sg71
g3319
sg64
(lp3335
g57
(g58
g59
NtRp3336
(dp3337
g62
(dp3338
g70
I3
ssg71
g3332
sg64
(lp3339
S'1'
asbasbasbasbasbasbasbasbasbasbasbasbasbsS'frames'
p3340
(lp3341
(dp3342
S'file'
p3343
S'/home/shipra/Desktop/Semester 1.2/ITWS-2/web2py/gluon/restricted.py'
p3344
sS'dump'
p3345
(dp3346
S'environment'
p3347
S"{'A': <class 'gluon.html.A'>, 'Auth': <class 'gluon.tools.Auth'>, 'B': <class 'gluon.html.B'>, 'BEAUTIFY': <class 'gluon.html.BEAUTIFY'>, 'BODY': <class 'gluon.html.BODY'>, 'BR': <class 'gluon.html.BR'>, 'BUTTON': <class 'gluon.html.BUTTON'>, 'CAT': <class 'gluon.html.CAT'>, 'CENTER': <class 'gluon.html.CENTER'>, 'CLEANUP': <class 'gluon.validators.CLEANUP'>, ...}"
p3348
sS'ccode'
p3349
S'<code object <module> at 0x7f810c2839b0, file "/...ications/shipra/views/default/prin.html", line 1>'
p3350
ssS'lnum'
p3351
I212
sS'lines'
p3352
(dp3353
I207
S'    try:'
p3354
sI208
S'        if isinstance(code, types.CodeType):'
p3355
sI209
S'            ccode = code'
p3356
sI210
S'        else:'
p3357
sI211
S'            ccode = compile2(code, layer)'
p3358
sI212
S'        exec ccode in environment'
p3359
sI213
S'    except HTTP:'
p3360
sI214
S'        raise'
p3361
sI215
S'    except RestrictedError:'
p3362
sI216
S'        # do not encapsulate (obfuscate) the original RestrictedError'
p3363
ssS'call'
p3364
S'(code=\'response.write(\\\'<!--[if HTML5]><![endif]-->\\\\n<!D..."></script>\\\\n</body>\\\\n</html>\\\\n\\\\n\\\', escape=False)\', environment={\'A\': <class \'gluon.html.A\'>, \'Auth\': <class \'gluon.tools.Auth\'>, \'B\': <class \'gluon.html.B\'>, \'BEAUTIFY\': <class \'gluon.html.BEAUTIFY\'>, \'BODY\': <class \'gluon.html.BODY\'>, \'BR\': <class \'gluon.html.BR\'>, \'BUTTON\': <class \'gluon.html.BUTTON\'>, \'CAT\': <class \'gluon.html.CAT\'>, \'CENTER\': <class \'gluon.html.CENTER\'>, \'CLEANUP\': <class \'gluon.validators.CLEANUP\'>, ...}, layer=\'/home/shipra/Desktop/Semester 1.2/ITWS-2/web2py/applications/shipra/views/default/prin.html\')'
p3365
sS'func'
p3366
S'restricted'
p3367
sa(dp3368
g3343
S'/home/shipra/Desktop/Semester 1.2/ITWS-2/web2py/applications/shipra/views/default/prin.html'
p3369
sg3345
(dp3370
sg3351
I83
sg3352
(dp3371
I74
S'    response.write(\'\\n        <div class="span3 left-sidebar">\\n            \', escape=False)'
p3372
sI75
S"    response.write('\\n            <h3>Left Sidebar</h3>\\n            <p></p>\\n            ', escape=False)"
p3373
sI76
S"    response.write('\\n        </div>\\n        ', escape=False)"
p3374
sI77
S'    pass'
p3375
sI78
S'response.write(\'\\n\\n        <div class="\', escape=False)'
p3376
sI79
S'response.write(middle_columns)'
p3377
sI80
S'response.write(\'">\\n            \', escape=False)'
p3378
sI81
S"response.write('\\n            ', escape=False)"
p3379
sI82
S"response.write('\\n<p><h3>PERSONAL</h3></p><br/>\\n<ol>\\n\\t<li> Gender : ', escape=False)"
p3380
sI83
S"response.write(pers['Gender'])"
p3381
sI84
S"response.write('</li>\\n</ol>\\n\\n', escape=False)"
p3382
sI85
S"response.write('\\n            ', escape=False)"
p3383
sI86
S"response.write('\\n        </div>\\n\\n        ', escape=False)"
p3384
sI87
S'if right_sidebar_enabled:'
p3385
sI88
S'    response.write(\'\\n        <div class="span3">\\n            \', escape=False)'
p3386
sI89
S"    response.write('\\n            <h3>Right Sidebar</h3>\\n            <p></p>\\n            ', escape=False)"
p3387
sI90
S"    response.write('\\n        </div>\\n        ', escape=False)"
p3388
sI91
S'    pass'
p3389
sI92
S'response.write(\'\\n    </section><!--/main-->\\n\\n    <!-- Footer ================================================== -->\\n    <div class="row">\\n        <footer class="footer span12" id="footer">\\n            <div class="footer-content">\\n                \', escape=False)'
p3390
sI93
S'response.write(\' <!-- this is default footer -->\\n                <div class="copyright pull-left">\', escape=False)'
p3391
ssg3364
S'()'
p3392
sg3366
S'<module>'
p3393
sa(dp3394
g3343
S'/home/shipra/Desktop/Semester 1.2/ITWS-2/web2py/gluon/dal.py'
p3395
sg3345
(dp3396
S'i'
S"'Gender'"
p3397
sS'self'
p3398
S'<Rows (1)>'
p3399
sS'self.records'
p3400
S"[<Row {'Personal': {'Gender': 'MALE', 'Age': 12, 'pid': 1, 'Contact': 8790677592, 'id': 1}}>]"
p3401
sS'row'
p3402
S'undefined'
p3403
ssg3351
I9170
sg3352
(dp3404
I9165
S''
sI9166
S'    def __getslice__(self, a, b):'
p3405
sI9167
S'        return Rows(self.db,self.records[a:b],self.colnames)'
p3406
sI9168
S''
sI9169
S'    def __getitem__(self, i):'
p3407
sI9170
S'        row = self.records[i]'
p3408
sI9171
S'        keys = row.keys()'
p3409
sI9172
S"        if self.compact and len(keys) == 1 and keys[0] != '_extra':"
p3410
sI9173
S'            return row[row.keys()[0]]'
p3411
sI9174
S'        return row'
p3412
ssg3364
S"(self=<Rows (1)>, i='Gender')"
p3413
sg3366
g20
sasS'pyver'
p3414
S'Python 2.7.3: /usr/bin/python'
p3415
sS'session'
p3416
g57
(g58
g59
NtRp3417
(dp3418
g62
(dp3419
sg64
(lp3420
g57
(g66
g59
NtRp3421
(dp3422
g62
(dp3423
g70
I5
ssg71
Nsg64
(lp3424
g57
(g73
g59
NtRp3425
(dp3426
g62
(dp3427
sg71
g3421
sg64
(lp3428
g57
(g78
g59
NtRp3429
(dp3430
g62
(dp3431
g82
g83
ssg71
g3425
sg64
(lp3432
S'auth'
p3433
asbag57
(g78
g59
NtRp3434
(dp3435
g62
(dp3436
g89
g90
ssg71
g3425
sg64
(lp3437
S':'
asbag57
(g78
g59
NtRp3438
(dp3439
g62
(dp3440
sg71
g3425
sg64
(lp3441
g57
(g58
g59
NtRp3442
(dp3443
g62
(dp3444
g70
I5
ssg71
g3438
sg64
(lp3445
g57
(g66
g59
NtRp3446
(dp3447
g62
(dp3448
g70
I4
ssg71
Nsg64
(lp3449
g57
(g73
g59
NtRp3450
(dp3451
g62
(dp3452
sg71
g3446
sg64
(lp3453
g57
(g78
g59
NtRp3454
(dp3455
g62
(dp3456
g82
g83
ssg71
g3450
sg64
(lp3457
S'expiration'
p3458
asbag57
(g78
g59
NtRp3459
(dp3460
g62
(dp3461
g89
g90
ssg71
g3450
sg64
(lp3462
S':'
asbag57
(g78
g59
NtRp3463
(dp3464
g62
(dp3465
sg71
g3450
sg64
(lp3466
g57
(g58
g59
NtRp3467
(dp3468
g62
(dp3469
g70
I4
ssg71
g3463
sg64
(lp3470
S'3600'
p3471
asbasbasbag57
(g73
g59
NtRp3472
(dp3473
g62
(dp3474
sg71
g3446
sg64
(lp3475
g57
(g78
g59
NtRp3476
(dp3477
g62
(dp3478
g82
g83
ssg71
g3472
sg64
(lp3479
S'hmac_key'
p3480
asbag57
(g78
g59
NtRp3481
(dp3482
g62
(dp3483
g89
g90
ssg71
g3472
sg64
(lp3484
S':'
asbag57
(g78
g59
NtRp3485
(dp3486
g62
(dp3487
sg71
g3472
sg64
(lp3488
g57
(g58
g59
NtRp3489
(dp3490
g62
(dp3491
g70
I4
ssg71
g3485
sg64
(lp3492
S'78fe866e-59f7-44fe-9b08-e0346c61ff3d'
p3493
asbasbasbag57
(g73
g59
NtRp3494
(dp3495
g62
(dp3496
sg71
g3446
sg64
(lp3497
g57
(g78
g59
NtRp3498
(dp3499
g62
(dp3500
g82
g83
ssg71
g3494
sg64
(lp3501
S'last_visit'
p3502
asbag57
(g78
g59
NtRp3503
(dp3504
g62
(dp3505
g89
g90
ssg71
g3494
sg64
(lp3506
S':'
asbag57
(g78
g59
NtRp3507
(dp3508
g62
(dp3509
sg71
g3494
sg64
(lp3510
g57
(g58
g59
NtRp3511
(dp3512
g62
(dp3513
g70
I4
ssg71
g3507
sg64
(lp3514
S'datetime.datetime(2013, 4, 1, 23, 12, 35, 864705)'
p3515
asbasbasbag57
(g73
g59
NtRp3516
(dp3517
g62
(dp3518
sg71
g3446
sg64
(lp3519
g57
(g78
g59
NtRp3520
(dp3521
g62
(dp3522
g82
g83
ssg71
g3516
sg64
(lp3523
S'remember'
p3524
asbag57
(g78
g59
NtRp3525
(dp3526
g62
(dp3527
g89
g90
ssg71
g3516
sg64
(lp3528
S':'
asbag57
(g78
g59
NtRp3529
(dp3530
g62
(dp3531
sg71
g3516
sg64
(lp3532
g57
(g58
g59
NtRp3533
(dp3534
g62
(dp3535
g70
I4
ssg71
g3529
sg64
(lp3536
g100
asbasbasbag57
(g73
g59
NtRp3537
(dp3538
g62
(dp3539
sg71
g3446
sg64
(lp3540
g57
(g78
g59
NtRp3541
(dp3542
g62
(dp3543
g82
g83
ssg71
g3537
sg64
(lp3544
S'user'
p3545
asbag57
(g78
g59
NtRp3546
(dp3547
g62
(dp3548
g89
g90
ssg71
g3537
sg64
(lp3549
S':'
asbag57
(g78
g59
NtRp3550
(dp3551
g62
(dp3552
sg71
g3537
sg64
(lp3553
g57
(g58
g59
NtRp3554
(dp3555
g62
(dp3556
g70
I4
ssg71
g3550
sg64
(lp3557
g57
(g66
g59
NtRp3558
(dp3559
g62
(dp3560
g70
I3
ssg71
Nsg64
(lp3561
g57
(g73
g59
NtRp3562
(dp3563
g62
(dp3564
sg71
g3558
sg64
(lp3565
g57
(g78
g59
NtRp3566
(dp3567
g62
(dp3568
g82
g83
ssg71
g3562
sg64
(lp3569
S'email'
p3570
asbag57
(g78
g59
NtRp3571
(dp3572
g62
(dp3573
g89
g90
ssg71
g3562
sg64
(lp3574
S':'
asbag57
(g78
g59
NtRp3575
(dp3576
g62
(dp3577
sg71
g3562
sg64
(lp3578
g57
(g58
g59
NtRp3579
(dp3580
g62
(dp3581
g70
I3
ssg71
g3575
sg64
(lp3582
S'arnavkagrawal@gmail.com'
p3583
asbasbasbag57
(g73
g59
NtRp3584
(dp3585
g62
(dp3586
sg71
g3558
sg64
(lp3587
g57
(g78
g59
NtRp3588
(dp3589
g62
(dp3590
g82
g83
ssg71
g3584
sg64
(lp3591
S'first_name'
p3592
asbag57
(g78
g59
NtRp3593
(dp3594
g62
(dp3595
g89
g90
ssg71
g3584
sg64
(lp3596
S':'
asbag57
(g78
g59
NtRp3597
(dp3598
g62
(dp3599
sg71
g3584
sg64
(lp3600
g57
(g58
g59
NtRp3601
(dp3602
g62
(dp3603
g70
I3
ssg71
g3597
sg64
(lp3604
S'Arnav'
p3605
asbasbasbag57
(g73
g59
NtRp3606
(dp3607
g62
(dp3608
sg71
g3558
sg64
(lp3609
g57
(g78
g59
NtRp3610
(dp3611
g62
(dp3612
g82
g83
ssg71
g3606
sg64
(lp3613
S'id'
p3614
asbag57
(g78
g59
NtRp3615
(dp3616
g62
(dp3617
g89
g90
ssg71
g3606
sg64
(lp3618
S':'
asbag57
(g78
g59
NtRp3619
(dp3620
g62
(dp3621
sg71
g3606
sg64
(lp3622
g57
(g58
g59
NtRp3623
(dp3624
g62
(dp3625
g70
I3
ssg71
g3619
sg64
(lp3626
S'1'
asbasbasbag57
(g73
g59
NtRp3627
(dp3628
g62
(dp3629
sg71
g3558
sg64
(lp3630
g57
(g78
g59
NtRp3631
(dp3632
g62
(dp3633
g82
g83
ssg71
g3627
sg64
(lp3634
S'last_name'
p3635
asbag57
(g78
g59
NtRp3636
(dp3637
g62
(dp3638
g89
g90
ssg71
g3627
sg64
(lp3639
S':'
asbag57
(g78
g59
NtRp3640
(dp3641
g62
(dp3642
sg71
g3627
sg64
(lp3643
g57
(g58
g59
NtRp3644
(dp3645
g62
(dp3646
g70
I3
ssg71
g3640
sg64
(lp3647
S'Agrawal'
p3648
asbasbasbag57
(g73
g59
NtRp3649
(dp3650
g62
(dp3651
sg71
g3558
sg64
(lp3652
g57
(g78
g59
NtRp3653
(dp3654
g62
(dp3655
g82
g83
ssg71
g3649
sg64
(lp3656
S'registration_id'
p3657
asbag57
(g78
g59
NtRp3658
(dp3659
g62
(dp3660
g89
g90
ssg71
g3649
sg64
(lp3661
S':'
asbag57
(g78
g59
NtRp3662
(dp3663
g62
(dp3664
sg71
g3649
sg64
(lp3665
g57
(g58
g59
NtRp3666
(dp3667
g62
(dp3668
g70
I3
ssg71
g3662
sg64
(lp3669
S''
asbasbasbag57
(g73
g59
NtRp3670
(dp3671
g62
(dp3672
sg71
g3558
sg64
(lp3673
g57
(g78
g59
NtRp3674
(dp3675
g62
(dp3676
g82
g83
ssg71
g3670
sg64
(lp3677
S'registration_key'
p3678
asbag57
(g78
g59
NtRp3679
(dp3680
g62
(dp3681
g89
g90
ssg71
g3670
sg64
(lp3682
S':'
asbag57
(g78
g59
NtRp3683
(dp3684
g62
(dp3685
sg71
g3670
sg64
(lp3686
g57
(g58
g59
NtRp3687
(dp3688
g62
(dp3689
g70
I3
ssg71
g3683
sg64
(lp3690
S''
asbasbasbag57
(g73
g59
NtRp3691
(dp3692
g62
(dp3693
sg71
g3558
sg64
(lp3694
g57
(g78
g59
NtRp3695
(dp3696
g62
(dp3697
g82
g83
ssg71
g3691
sg64
(lp3698
S'reset_password_key'
p3699
asbag57
(g78
g59
NtRp3700
(dp3701
g62
(dp3702
g89
g90
ssg71
g3691
sg64
(lp3703
S':'
asbag57
(g78
g59
NtRp3704
(dp3705
g62
(dp3706
sg71
g3691
sg64
(lp3707
g57
(g58
g59
NtRp3708
(dp3709
g62
(dp3710
g70
I3
ssg71
g3704
sg64
(lp3711
S''
asbasbasbasbasbasbasbag57
(g73
g59
NtRp3712
(dp3713
g62
(dp3714
sg71
g3446
sg64
(lp3715
g57
(g78
g59
NtRp3716
(dp3717
g62
(dp3718
g82
g83
ssg71
g3712
sg64
(lp3719
S'user_groups'
p3720
asbag57
(g78
g59
NtRp3721
(dp3722
g62
(dp3723
g89
g90
ssg71
g3712
sg64
(lp3724
S':'
asbag57
(g78
g59
NtRp3725
(dp3726
g62
(dp3727
sg71
g3712
sg64
(lp3728
g57
(g58
g59
NtRp3729
(dp3730
g62
(dp3731
g70
I4
ssg71
g3725
sg64
(lp3732
g57
(g66
g59
NtRp3733
(dp3734
g62
(dp3735
g70
I3
ssg71
Nsg64
(lp3736
g57
(g73
g59
NtRp3737
(dp3738
g62
(dp3739
sg71
g3733
sg64
(lp3740
g57
(g78
g59
NtRp3741
(dp3742
g62
(dp3743
g82
g83
ssg71
g3737
sg64
(lp3744
S'1'
asbag57
(g78
g59
NtRp3745
(dp3746
g62
(dp3747
g89
g90
ssg71
g3737
sg64
(lp3748
S':'
asbag57
(g78
g59
NtRp3749
(dp3750
g62
(dp3751
sg71
g3737
sg64
(lp3752
g57
(g58
g59
NtRp3753
(dp3754
g62
(dp3755
g70
I3
ssg71
g3749
sg64
(lp3756
S'user_1'
p3757
asbasbasbasbasbasbasbasbasbasbasbag57
(g73
g59
NtRp3758
(dp3759
g62
(dp3760
sg71
g3421
sg64
(lp3761
g57
(g78
g59
NtRp3762
(dp3763
g62
(dp3764
g82
g83
ssg71
g3758
sg64
(lp3765
S'flash'
p3766
asbag57
(g78
g59
NtRp3767
(dp3768
g62
(dp3769
g89
g90
ssg71
g3758
sg64
(lp3770
S':'
asbag57
(g78
g59
NtRp3771
(dp3772
g62
(dp3773
sg71
g3758
sg64
(lp3774
g57
(g58
g59
NtRp3775
(dp3776
g62
(dp3777
g70
I5
ssg71
g3771
sg64
(lp3778
S'None'
p3779
asbasbasbag57
(g73
g59
NtRp3780
(dp3781
g62
(dp3782
sg71
g3421
sg64
(lp3783
g57
(g78
g59
NtRp3784
(dp3785
g62
(dp3786
g82
g83
ssg71
g3780
sg64
(lp3787
S'last_orderby'
p3788
asbag57
(g78
g59
NtRp3789
(dp3790
g62
(dp3791
g89
g90
ssg71
g3780
sg64
(lp3792
S':'
asbag57
(g78
g59
NtRp3793
(dp3794
g62
(dp3795
sg71
g3780
sg64
(lp3796
g57
(g58
g59
NtRp3797
(dp3798
g62
(dp3799
g70
I5
ssg71
g3793
sg64
(lp3800
S'None'
p3801
asbasbasbag57
(g73
g59
NtRp3802
(dp3803
g62
(dp3804
sg71
g3421
sg64
(lp3805
g57
(g78
g59
NtRp3806
(dp3807
g62
(dp3808
g82
g83
ssg71
g3802
sg64
(lp3809
S'last_query'
p3810
asbag57
(g78
g59
NtRp3811
(dp3812
g62
(dp3813
g89
g90
ssg71
g3802
sg64
(lp3814
S':'
asbag57
(g78
g59
NtRp3815
(dp3816
g62
(dp3817
sg71
g3802
sg64
(lp3818
g57
(g58
g59
NtRp3819
(dp3820
g62
(dp3821
g70
I5
ssg71
g3815
sg64
(lp3822
S'db.Personal.id>0'
p3823
asbasbasbasbasbsS'etype'
p3824
S"<type 'exceptions.TypeError'>"
p3825
sS'date'
p3826
S'Mon Apr  1 23:18:23 2013'
p3827
sS'response'
p3828
g57
(g58
g59
NtRp3829
(dp3830
g62
(dp3831
sg64
(lp3832
g57
(g66
g59
NtRp3833
(dp3834
g62
(dp3835
g70
I5
ssg71
Nsg64
(lp3836
g57
(g73
g59
NtRp3837
(dp3838
g62
(dp3839
sg71
g3833
sg64
(lp3840
g57
(g78
g59
NtRp3841
(dp3842
g62
(dp3843
g82
g83
ssg71
g3837
sg64
(lp3844
g155
asbag57
(g78
g59
NtRp3845
(dp3846
g62
(dp3847
g89
g90
ssg71
g3837
sg64
(lp3848
S':'
asbag57
(g78
g59
NtRp3849
(dp3850
g62
(dp3851
sg71
g3837
sg64
(lp3852
g57
(g58
g59
NtRp3853
(dp3854
g62
(dp3855
g70
I5
ssg71
g3849
sg64
(lp3856
S'<cStringIO.StringO object at 0x7f8108197688>'
p3857
asbasbasbag57
(g73
g59
NtRp3858
(dp3859
g62
(dp3860
sg71
g3833
sg64
(lp3861
g57
(g78
g59
NtRp3862
(dp3863
g62
(dp3864
g82
g83
ssg71
g3858
sg64
(lp3865
g243
asbag57
(g78
g59
NtRp3866
(dp3867
g62
(dp3868
g89
g90
ssg71
g3858
sg64
(lp3869
S':'
asbag57
(g78
g59
NtRp3870
(dp3871
g62
(dp3872
sg71
g3858
sg64
(lp3873
g57
(g58
g59
NtRp3874
(dp3875
g62
(dp3876
g70
I5
ssg71
g3870
sg64
(lp3877
g57
(g66
g59
NtRp3878
(dp3879
g62
(dp3880
g70
I4
ssg71
Nsg64
(lp3881
g57
(g73
g59
NtRp3882
(dp3883
g62
(dp3884
sg71
g3878
sg64
(lp3885
g57
(g78
g59
NtRp3886
(dp3887
g62
(dp3888
g82
g83
ssg71
g3882
sg64
(lp3889
S'session_id_shipra'
p3890
asbag57
(g78
g59
NtRp3891
(dp3892
g62
(dp3893
g89
g90
ssg71
g3882
sg64
(lp3894
S':'
asbag57
(g78
g59
NtRp3895
(dp3896
g62
(dp3897
sg71
g3882
sg64
(lp3898
g57
(g58
g59
NtRp3899
(dp3900
g62
(dp3901
g70
I4
ssg71
g3895
sg64
(lp3902
g661
ag57
(g66
g59
NtRp3903
(dp3904
g62
(dp3905
g70
I3
ssg71
Nsg64
(lp3906
g57
(g73
g59
NtRp3907
(dp3908
g62
(dp3909
sg71
g3903
sg64
(lp3910
g57
(g78
g59
NtRp3911
(dp3912
g62
(dp3913
g82
g83
ssg71
g3907
sg64
(lp3914
g294
asbag57
(g78
g59
NtRp3915
(dp3916
g62
(dp3917
g89
g90
ssg71
g3907
sg64
(lp3918
S':'
asbag57
(g78
g59
NtRp3919
(dp3920
g62
(dp3921
sg71
g3907
sg64
(lp3922
g57
(g58
g59
NtRp3923
(dp3924
g62
(dp3925
g70
I3
ssg71
g3919
sg64
(lp3926
S''
asbasbasbag57
(g73
g59
NtRp3927
(dp3928
g62
(dp3929
sg71
g3903
sg64
(lp3930
g57
(g78
g59
NtRp3931
(dp3932
g62
(dp3933
g82
g83
ssg71
g3927
sg64
(lp3934
g315
asbag57
(g78
g59
NtRp3935
(dp3936
g62
(dp3937
g89
g90
ssg71
g3927
sg64
(lp3938
S':'
asbag57
(g78
g59
NtRp3939
(dp3940
g62
(dp3941
sg71
g3927
sg64
(lp3942
g57
(g58
g59
NtRp3943
(dp3944
g62
(dp3945
g70
I3
ssg71
g3939
sg64
(lp3946
S''
asbasbasbag57
(g73
g59
NtRp3947
(dp3948
g62
(dp3949
sg71
g3903
sg64
(lp3950
g57
(g78
g59
NtRp3951
(dp3952
g62
(dp3953
g82
g83
ssg71
g3947
sg64
(lp3954
g336
asbag57
(g78
g59
NtRp3955
(dp3956
g62
(dp3957
g89
g90
ssg71
g3947
sg64
(lp3958
S':'
asbag57
(g78
g59
NtRp3959
(dp3960
g62
(dp3961
sg71
g3947
sg64
(lp3962
g57
(g58
g59
NtRp3963
(dp3964
g62
(dp3965
g70
I3
ssg71
g3959
sg64
(lp3966
S''
asbasbasbag57
(g73
g59
NtRp3967
(dp3968
g62
(dp3969
sg71
g3903
sg64
(lp3970
g57
(g78
g59
NtRp3971
(dp3972
g62
(dp3973
g82
g83
ssg71
g3967
sg64
(lp3974
g357
asbag57
(g78
g59
NtRp3975
(dp3976
g62
(dp3977
g89
g90
ssg71
g3967
sg64
(lp3978
S':'
asbag57
(g78
g59
NtRp3979
(dp3980
g62
(dp3981
sg71
g3967
sg64
(lp3982
g57
(g58
g59
NtRp3983
(dp3984
g62
(dp3985
g70
I3
ssg71
g3979
sg64
(lp3986
S''
asbasbasbag57
(g73
g59
NtRp3987
(dp3988
g62
(dp3989
sg71
g3903
sg64
(lp3990
g57
(g78
g59
NtRp3991
(dp3992
g62
(dp3993
g82
g83
ssg71
g3987
sg64
(lp3994
g378
asbag57
(g78
g59
NtRp3995
(dp3996
g62
(dp3997
g89
g90
ssg71
g3987
sg64
(lp3998
S':'
asbag57
(g78
g59
NtRp3999
(dp4000
g62
(dp4001
sg71
g3987
sg64
(lp4002
g57
(g58
g59
NtRp4003
(dp4004
g62
(dp4005
g70
I3
ssg71
g3999
sg64
(lp4006
S''
asbasbasbag57
(g73
g59
NtRp4007
(dp4008
g62
(dp4009
sg71
g3903
sg64
(lp4010
g57
(g78
g59
NtRp4011
(dp4012
g62
(dp4013
g82
g83
ssg71
g4007
sg64
(lp4014
g399
asbag57
(g78
g59
NtRp4015
(dp4016
g62
(dp4017
g89
g90
ssg71
g4007
sg64
(lp4018
S':'
asbag57
(g78
g59
NtRp4019
(dp4020
g62
(dp4021
sg71
g4007
sg64
(lp4022
g57
(g58
g59
NtRp4023
(dp4024
g62
(dp4025
g70
I3
ssg71
g4019
sg64
(lp4026
S'/'
asbasbasbag57
(g73
g59
NtRp4027
(dp4028
g62
(dp4029
sg71
g3903
sg64
(lp4030
g57
(g78
g59
NtRp4031
(dp4032
g62
(dp4033
g82
g83
ssg71
g4027
sg64
(lp4034
g420
asbag57
(g78
g59
NtRp4035
(dp4036
g62
(dp4037
g89
g90
ssg71
g4027
sg64
(lp4038
S':'
asbag57
(g78
g59
NtRp4039
(dp4040
g62
(dp4041
sg71
g4027
sg64
(lp4042
g57
(g58
g59
NtRp4043
(dp4044
g62
(dp4045
g70
I3
ssg71
g4039
sg64
(lp4046
S''
asbasbasbag57
(g73
g59
NtRp4047
(dp4048
g62
(dp4049
sg71
g3903
sg64
(lp4050
g57
(g78
g59
NtRp4051
(dp4052
g62
(dp4053
g82
g83
ssg71
g4047
sg64
(lp4054
g441
asbag57
(g78
g59
NtRp4055
(dp4056
g62
(dp4057
g89
g90
ssg71
g4047
sg64
(lp4058
S':'
asbag57
(g78
g59
NtRp4059
(dp4060
g62
(dp4061
sg71
g4047
sg64
(lp4062
g57
(g58
g59
NtRp4063
(dp4064
g62
(dp4065
g70
I3
ssg71
g4059
sg64
(lp4066
S''
asbasbasbasbasbasbasbasbasbasbasbag57
(g73
g59
NtRp4067
(dp4068
g62
(dp4069
sg71
g3833
sg64
(lp4070
g57
(g78
g59
NtRp4071
(dp4072
g62
(dp4073
g82
g83
ssg71
g4067
sg64
(lp4074
S'delimiters'
p4075
asbag57
(g78
g59
NtRp4076
(dp4077
g62
(dp4078
g89
g90
ssg71
g4067
sg64
(lp4079
S':'
asbag57
(g78
g59
NtRp4080
(dp4081
g62
(dp4082
sg71
g4067
sg64
(lp4083
g57
(g58
g59
NtRp4084
(dp4085
g62
(dp4086
g70
I5
ssg71
g4080
sg64
(lp4087
g57
(g66
g59
NtRp4088
(dp4089
g62
(dp4090
g70
I4
ssg71
Nsg64
(lp4091
g57
(g73
g59
NtRp4092
(dp4093
g62
(dp4094
sg71
g4088
sg64
(lp4095
g57
(g78
g59
NtRp4096
(dp4097
g62
(dp4098
sg71
g4092
sg64
(lp4099
g57
(g58
g59
NtRp4100
(dp4101
g62
(dp4102
g70
I4
ssg71
g4096
sg64
(lp4103
S'{{'
p4104
asbasbasbag57
(g73
g59
NtRp4105
(dp4106
g62
(dp4107
sg71
g4088
sg64
(lp4108
g57
(g78
g59
NtRp4109
(dp4110
g62
(dp4111
sg71
g4105
sg64
(lp4112
g57
(g58
g59
NtRp4113
(dp4114
g62
(dp4115
g70
I4
ssg71
g4109
sg64
(lp4116
S'}}'
p4117
asbasbasbasbasbasbasbag57
(g73
g59
NtRp4118
(dp4119
g62
(dp4120
sg71
g3833
sg64
(lp4121
g57
(g78
g59
NtRp4122
(dp4123
g62
(dp4124
g82
g83
ssg71
g4118
sg64
(lp4125
S'files'
p4126
asbag57
(g78
g59
NtRp4127
(dp4128
g62
(dp4129
g89
g90
ssg71
g4118
sg64
(lp4130
S':'
asbag57
(g78
g59
NtRp4131
(dp4132
g62
(dp4133
sg71
g4118
sg64
(lp4134
g57
(g58
g59
NtRp4135
(dp4136
g62
(dp4137
g70
I5
ssg71
g4131
sg64
(lp4138
g57
(g66
g59
NtRp4139
(dp4140
g62
(dp4141
g70
I4
ssg71
Nsg64
(lp4142
g57
(g73
g59
NtRp4143
(dp4144
g62
(dp4145
sg71
g4139
sg64
(lp4146
g57
(g78
g59
NtRp4147
(dp4148
g62
(dp4149
sg71
g4143
sg64
(lp4150
g57
(g58
g59
NtRp4151
(dp4152
g62
(dp4153
g70
I4
ssg71
g4147
sg64
(lp4154
S'/shipra/static/js/jquery.js'
p4155
asbasbasbag57
(g73
g59
NtRp4156
(dp4157
g62
(dp4158
sg71
g4139
sg64
(lp4159
g57
(g78
g59
NtRp4160
(dp4161
g62
(dp4162
sg71
g4156
sg64
(lp4163
g57
(g58
g59
NtRp4164
(dp4165
g62
(dp4166
g70
I4
ssg71
g4160
sg64
(lp4167
S'/shipra/static/css/calendar.css'
p4168
asbasbasbag57
(g73
g59
NtRp4169
(dp4170
g62
(dp4171
sg71
g4139
sg64
(lp4172
g57
(g78
g59
NtRp4173
(dp4174
g62
(dp4175
sg71
g4169
sg64
(lp4176
g57
(g58
g59
NtRp4177
(dp4178
g62
(dp4179
g70
I4
ssg71
g4173
sg64
(lp4180
S'/shipra/static/js/calendar.js'
p4181
asbasbasbag57
(g73
g59
NtRp4182
(dp4183
g62
(dp4184
sg71
g4139
sg64
(lp4185
g57
(g78
g59
NtRp4186
(dp4187
g62
(dp4188
sg71
g4182
sg64
(lp4189
g57
(g58
g59
NtRp4190
(dp4191
g62
(dp4192
g70
I4
ssg71
g4186
sg64
(lp4193
S'/shipra/static/js/web2py.js'
p4194
asbasbasbag57
(g73
g59
NtRp4195
(dp4196
g62
(dp4197
sg71
g4139
sg64
(lp4198
g57
(g78
g59
NtRp4199
(dp4200
g62
(dp4201
sg71
g4195
sg64
(lp4202
g57
(g58
g59
NtRp4203
(dp4204
g62
(dp4205
g70
I4
ssg71
g4199
sg64
(lp4206
S'/shipra/static/css/web2py.css'
p4207
asbasbasbag57
(g73
g59
NtRp4208
(dp4209
g62
(dp4210
sg71
g4139
sg64
(lp4211
g57
(g78
g59
NtRp4212
(dp4213
g62
(dp4214
sg71
g4208
sg64
(lp4215
g57
(g58
g59
NtRp4216
(dp4217
g62
(dp4218
g70
I4
ssg71
g4212
sg64
(lp4219
S'/shipra/static/css/bootstrap.min.css'
p4220
asbasbasbag57
(g73
g59
NtRp4221
(dp4222
g62
(dp4223
sg71
g4139
sg64
(lp4224
g57
(g78
g59
NtRp4225
(dp4226
g62
(dp4227
sg71
g4221
sg64
(lp4228
g57
(g58
g59
NtRp4229
(dp4230
g62
(dp4231
g70
I4
ssg71
g4225
sg64
(lp4232
S'/shipra/static/css/bootstrap-responsive.min.css'
p4233
asbasbasbag57
(g73
g59
NtRp4234
(dp4235
g62
(dp4236
sg71
g4139
sg64
(lp4237
g57
(g78
g59
NtRp4238
(dp4239
g62
(dp4240
sg71
g4234
sg64
(lp4241
g57
(g58
g59
NtRp4242
(dp4243
g62
(dp4244
g70
I4
ssg71
g4238
sg64
(lp4245
S'/shipra/static/css/web2py_bootstrap.css'
p4246
asbasbasbasbasbasbasbag57
(g73
g59
NtRp4247
(dp4248
g62
(dp4249
sg71
g3833
sg64
(lp4250
g57
(g78
g59
NtRp4251
(dp4252
g62
(dp4253
g82
g83
ssg71
g4247
sg64
(lp4254
S'flash'
p4255
asbag57
(g78
g59
NtRp4256
(dp4257
g62
(dp4258
g89
g90
ssg71
g4247
sg64
(lp4259
S':'
asbag57
(g78
g59
NtRp4260
(dp4261
g62
(dp4262
sg71
g4247
sg64
(lp4263
g57
(g58
g59
NtRp4264
(dp4265
g62
(dp4266
g70
I5
ssg71
g4260
sg64
(lp4267
S''
asbasbasbag57
(g73
g59
NtRp4268
(dp4269
g62
(dp4270
sg71
g3833
sg64
(lp4271
g57
(g78
g59
NtRp4272
(dp4273
g62
(dp4274
g82
g83
ssg71
g4268
sg64
(lp4275
S'generic_patterns'
p4276
asbag57
(g78
g59
NtRp4277
(dp4278
g62
(dp4279
g89
g90
ssg71
g4268
sg64
(lp4280
S':'
asbag57
(g78
g59
NtRp4281
(dp4282
g62
(dp4283
sg71
g4268
sg64
(lp4284
g57
(g58
g59
NtRp4285
(dp4286
g62
(dp4287
g70
I5
ssg71
g4281
sg64
(lp4288
g57
(g66
g59
NtRp4289
(dp4290
g62
(dp4291
g70
I4
ssg71
Nsg64
(lp4292
g57
(g73
g59
NtRp4293
(dp4294
g62
(dp4295
sg71
g4289
sg64
(lp4296
g57
(g78
g59
NtRp4297
(dp4298
g62
(dp4299
sg71
g4293
sg64
(lp4300
g57
(g58
g59
NtRp4301
(dp4302
g62
(dp4303
g70
I4
ssg71
g4297
sg64
(lp4304
S'*'
asbasbasbasbasbasbasbag57
(g73
g59
NtRp4305
(dp4306
g62
(dp4307
sg71
g3833
sg64
(lp4308
g57
(g78
g59
NtRp4309
(dp4310
g62
(dp4311
g82
g83
ssg71
g4305
sg64
(lp4312
S'google_analytics_id'
p4313
asbag57
(g78
g59
NtRp4314
(dp4315
g62
(dp4316
g89
g90
ssg71
g4305
sg64
(lp4317
S':'
asbag57
(g78
g59
NtRp4318
(dp4319
g62
(dp4320
sg71
g4305
sg64
(lp4321
g57
(g58
g59
NtRp4322
(dp4323
g62
(dp4324
g70
I5
ssg71
g4318
sg64
(lp4325
S'None'
p4326
asbasbasbag57
(g73
g59
NtRp4327
(dp4328
g62
(dp4329
sg71
g3833
sg64
(lp4330
g57
(g78
g59
NtRp4331
(dp4332
g62
(dp4333
g82
g83
ssg71
g4327
sg64
(lp4334
S'headers'
p4335
asbag57
(g78
g59
NtRp4336
(dp4337
g62
(dp4338
g89
g90
ssg71
g4327
sg64
(lp4339
S':'
asbag57
(g78
g59
NtRp4340
(dp4341
g62
(dp4342
sg71
g4327
sg64
(lp4343
g57
(g58
g59
NtRp4344
(dp4345
g62
(dp4346
g70
I5
ssg71
g4340
sg64
(lp4347
g57
(g66
g59
NtRp4348
(dp4349
g62
(dp4350
g70
I4
ssg71
Nsg64
(lp4351
g57
(g73
g59
NtRp4352
(dp4353
g62
(dp4354
sg71
g4348
sg64
(lp4355
g57
(g78
g59
NtRp4356
(dp4357
g62
(dp4358
g82
g83
ssg71
g4352
sg64
(lp4359
S'X-Powered-By'
p4360
asbag57
(g78
g59
NtRp4361
(dp4362
g62
(dp4363
g89
g90
ssg71
g4352
sg64
(lp4364
S':'
asbag57
(g78
g59
NtRp4365
(dp4366
g62
(dp4367
sg71
g4352
sg64
(lp4368
g57
(g58
g59
NtRp4369
(dp4370
g62
(dp4371
g70
I4
ssg71
g4365
sg64
(lp4372
S'web2py'
p4373
asbasbasbasbasbasbasbag57
(g73
g59
NtRp4374
(dp4375
g62
(dp4376
sg71
g3833
sg64
(lp4377
g57
(g78
g59
NtRp4378
(dp4379
g62
(dp4380
g82
g83
ssg71
g4374
sg64
(lp4381
S'logo'
p4382
asbag57
(g78
g59
NtRp4383
(dp4384
g62
(dp4385
g89
g90
ssg71
g4374
sg64
(lp4386
S':'
asbag57
(g78
g59
NtRp4387
(dp4388
g62
(dp4389
sg71
g4374
sg64
(lp4390
g57
(g58
g59
NtRp4391
(dp4392
g62
(dp4393
g70
I5
ssg71
g4387
sg64
(lp4394
g57
(cgluon.html
A
p4395
g59
NtRp4396
(dp4397
g62
(dp4398
S'_class'
p4399
S'brand'
p4400
sS'_href'
p4401
S'http://www.web2py.com/'
p4402
ssg71
Nsg64
(lp4403
g57
(cgluon.html
B
p4404
g59
NtRp4405
(dp4406
g62
(dp4407
sg71
g4396
sg64
(lp4408
S'web'
p4409
ag57
(cgluon.html
SPAN
p4410
g59
NtRp4411
(dp4412
g62
(dp4413
sg71
g4405
sg64
(lp4414
I2
asbaS'py'
p4415
asbacgluon.html
XML_unpickle
p4416
(S's\r\x00\x00\x00&trade;&nbsp;'
tRp4417
asbasbasbasbag57
(g73
g59
NtRp4418
(dp4419
g62
(dp4420
sg71
g3833
sg64
(lp4421
g57
(g78
g59
NtRp4422
(dp4423
g62
(dp4424
g82
g83
ssg71
g4418
sg64
(lp4425
S'menu'
p4426
asbag57
(g78
g59
NtRp4427
(dp4428
g62
(dp4429
g89
g90
ssg71
g4418
sg64
(lp4430
S':'
asbag57
(g78
g59
NtRp4431
(dp4432
g62
(dp4433
sg71
g4418
sg64
(lp4434
g57
(g58
g59
NtRp4435
(dp4436
g62
(dp4437
g70
I5
ssg71
g4431
sg64
(lp4438
g57
(g66
g59
NtRp4439
(dp4440
g62
(dp4441
g70
I4
ssg71
Nsg64
(lp4442
g57
(g73
g59
NtRp4443
(dp4444
g62
(dp4445
sg71
g4439
sg64
(lp4446
g57
(g78
g59
NtRp4447
(dp4448
g62
(dp4449
sg71
g4443
sg64
(lp4450
g57
(g58
g59
NtRp4451
(dp4452
g62
(dp4453
g70
I4
ssg71
g4447
sg64
(lp4454
g57
(g66
g59
NtRp4455
(dp4456
g62
(dp4457
g70
I3
ssg71
Nsg64
(lp4458
g57
(g73
g59
NtRp4459
(dp4460
g62
(dp4461
sg71
g4455
sg64
(lp4462
g57
(g78
g59
NtRp4463
(dp4464
g62
(dp4465
sg71
g4459
sg64
(lp4466
g57
(g58
g59
NtRp4467
(dp4468
g62
(dp4469
g70
I3
ssg71
g4463
sg64
(lp4470
cgluon.languages
lazyT_unpickle
p4471
(S's\x04\x00\x00\x00Home'
tRp4472
asbasbasbag57
(g73
g59
NtRp4473
(dp4474
g62
(dp4475
sg71
g4455
sg64
(lp4476
g57
(g78
g59
NtRp4477
(dp4478
g62
(dp4479
sg71
g4473
sg64
(lp4480
g57
(g58
g59
NtRp4481
(dp4482
g62
(dp4483
g70
I3
ssg71
g4477
sg64
(lp4484
g100
asbasbasbag57
(g73
g59
NtRp4485
(dp4486
g62
(dp4487
sg71
g4455
sg64
(lp4488
g57
(g78
g59
NtRp4489
(dp4490
g62
(dp4491
sg71
g4485
sg64
(lp4492
g57
(g58
g59
NtRp4493
(dp4494
g62
(dp4495
g70
I3
ssg71
g4489
sg64
(lp4496
S'/shipra/default/index'
p4497
asbasbasbag57
(g73
g59
NtRp4498
(dp4499
g62
(dp4500
sg71
g4455
sg64
(lp4501
g57
(g78
g59
NtRp4502
(dp4503
g62
(dp4504
sg71
g4498
sg64
(lp4505
g57
(g58
g59
NtRp4506
(dp4507
g62
(dp4508
g70
I3
ssg71
g4502
sg64
(lp4509
g57
(g66
g59
NtRp4510
(dp4511
g62
(dp4512
g70
I2
ssg71
Nsg64
(lp4513
sbasbasbasbasbasbasbasbag57
(g73
g59
NtRp4514
(dp4515
g62
(dp4516
sg71
g4439
sg64
(lp4517
g57
(g78
g59
NtRp4518
(dp4519
g62
(dp4520
sg71
g4514
sg64
(lp4521
g57
(g58
g59
NtRp4522
(dp4523
g62
(dp4524
g70
I4
ssg71
g4518
sg64
(lp4525
g57
(g66
g59
NtRp4526
(dp4527
g62
(dp4528
g70
I3
ssg71
Nsg64
(lp4529
g57
(g73
g59
NtRp4530
(dp4531
g62
(dp4532
sg71
g4526
sg64
(lp4533
g57
(g78
g59
NtRp4534
(dp4535
g62
(dp4536
sg71
g4530
sg64
(lp4537
g57
(g58
g59
NtRp4538
(dp4539
g62
(dp4540
g70
I3
ssg71
g4534
sg64
(lp4541
g57
(g4410
g59
NtRp4542
(dp4543
g62
(dp4544
g4399
S'highlighted'
p4545
ssg71
g57
(g4395
g59
NtRp4546
(dp4547
g62
(dp4548
g4401
S'http://web2py.com'
p4549
ssg71
g57
(cgluon.html
LI
p4550
g59
NtRp4551
(dp4552
g62
(dp4553
g4399
S'dropdown'
p4554
ssg71
g57
(cgluon.html
UL
p4555
g59
NtRp4556
(dp4557
g62
(dp4558
S'mobile'
p4559
I00
sS'ul_class'
p4560
S'dropdown-menu'
p4561
sS'li_last'
p4562
S'web2py-menu-last'
p4563
sS'li_class'
p4564
g4554
sS'li_first'
p4565
S'web2py-menu-first'
p4566
sg4399
S'nav'
p4567
sS'li_active'
p4568
S'web2py-menu-active'
p4569
ssg71
Nsg64
(lp4570
g57
(g4550
g59
NtRp4571
(dp4572
g62
(dp4573
g4399
g4566
ssg71
g4556
sg64
(lp4574
g57
(g4395
g59
NtRp4575
(dp4576
g62
(dp4577
g4401
g4497
ssg71
g4571
sg64
(lp4578
g4472
asbasbag4551
asbsg64
(lp4579
g4546
ag57
(g4555
g59
NtRp4580
(dp4581
g62
(dp4582
g4399
g4561
ssg71
g4551
sg64
(lp4583
g57
(g4550
g59
NtRp4584
(dp4585
g62
(dp4586
sg71
g4580
sg64
(lp4587
g57
(g4395
g59
NtRp4588
(dp4589
g62
(dp4590
g4401
S'/admin/default/site'
p4591
ssg71
g4584
sg64
(lp4592
g4471
(S's\x08\x00\x00\x00My Sites'
tRp4593
asbasbag57
(g4550
g59
NtRp4594
(dp4595
g62
(dp4596
g4399
g4554
ssg71
g4580
sg64
(lp4597
g57
(g4395
g59
NtRp4598
(dp4599
g62
(dp4600
g4401
S'/admin/default/design/shipra'
p4601
ssg71
g4594
sg64
(lp4602
g4471
(S's\x08\x00\x00\x00This App'
tRp4603
asbag57
(g4555
g59
NtRp4604
(dp4605
g62
(dp4606
g4399
g4561
ssg71
g4594
sg64
(lp4607
g57
(g4550
g59
NtRp4608
(dp4609
g62
(dp4610
sg71
g4604
sg64
(lp4611
g57
(g4395
g59
NtRp4612
(dp4613
g62
(dp4614
g4401
S'/admin/default/edit/shipra/controllers/default.py'
p4615
ssg71
g4608
sg64
(lp4616
g4471
(S's\n\x00\x00\x00Controller'
tRp4617
asbasbag57
(g4550
g59
NtRp4618
(dp4619
g62
(dp4620
sg71
g4604
sg64
(lp4621
g57
(g4395
g59
NtRp4622
(dp4623
g62
(dp4624
g4401
S'/admin/default/edit/shipra/views/default/prin.html'
p4625
ssg71
g4618
sg64
(lp4626
g4471
(S's\x04\x00\x00\x00View'
tRp4627
asbasbag57
(g4550
g59
NtRp4628
(dp4629
g62
(dp4630
sg71
g4604
sg64
(lp4631
g57
(g4395
g59
NtRp4632
(dp4633
g62
(dp4634
g4401
S'/admin/default/edit/shipra/views/layout.html'
p4635
ssg71
g4628
sg64
(lp4636
g4471
(S's\x06\x00\x00\x00Layout'
tRp4637
asbasbag57
(g4550
g59
NtRp4638
(dp4639
g62
(dp4640
sg71
g4604
sg64
(lp4641
g57
(g4395
g59
NtRp4642
(dp4643
g62
(dp4644
g4401
S'/admin/default/edit/shipra/static/css/web2py.css'
p4645
ssg71
g4638
sg64
(lp4646
g4471
(S's\n\x00\x00\x00Stylesheet'
tRp4647
asbasbag57
(g4550
g59
NtRp4648
(dp4649
g62
(dp4650
sg71
g4604
sg64
(lp4651
g57
(g4395
g59
NtRp4652
(dp4653
g62
(dp4654
g4401
S'/admin/default/edit/shipra/models/db.py'
p4655
ssg71
g4648
sg64
(lp4656
g4471
(S's\x08\x00\x00\x00DB Model'
tRp4657
asbasbag57
(g4550
g59
NtRp4658
(dp4659
g62
(dp4660
sg71
g4604
sg64
(lp4661
g57
(g4395
g59
NtRp4662
(dp4663
g62
(dp4664
g4401
S'/admin/default/edit/shipra/models/menu.py'
p4665
ssg71
g4658
sg64
(lp4666
g4471
(S's\n\x00\x00\x00Menu Model'
tRp4667
asbasbag57
(g4550
g59
NtRp4668
(dp4669
g62
(dp4670
sg71
g4604
sg64
(lp4671
g57
(g4395
g59
NtRp4672
(dp4673
g62
(dp4674
g4401
S'/shipra/appadmin/index'
p4675
ssg71
g4668
sg64
(lp4676
g4471
(S's\x08\x00\x00\x00Database'
tRp4677
asbasbag57
(g4550
g59
NtRp4678
(dp4679
g62
(dp4680
sg71
g4604
sg64
(lp4681
g57
(g4395
g59
NtRp4682
(dp4683
g62
(dp4684
g4401
S'/admin/default/errors/shipra'
p4685
ssg71
g4678
sg64
(lp4686
g4471
(S's\x06\x00\x00\x00Errors'
tRp4687
asbasbag57
(g4550
g59
NtRp4688
(dp4689
g62
(dp4690
sg71
g4604
sg64
(lp4691
g57
(g4395
g59
NtRp4692
(dp4693
g62
(dp4694
g4401
S'/admin/default/about/shipra'
p4695
ssg71
g4688
sg64
(lp4696
g4471
(S's\x05\x00\x00\x00About'
tRp4697
asbasbasbasbag57
(g4550
g59
NtRp4698
(dp4699
g62
(dp4700
g4399
g4554
ssg71
g4580
sg64
(lp4701
g57
(g4395
g59
NtRp4702
(dp4703
g62
(dp4704
g4401
S'http://www.web2py.com'
p4705
ssg71
g4698
sg64
(lp4706
S'web2py.com'
p4707
asbag57
(g4555
g59
NtRp4708
(dp4709
g62
(dp4710
g4399
g4561
ssg71
g4698
sg64
(lp4711
g57
(g4550
g59
NtRp4712
(dp4713
g62
(dp4714
sg71
g4708
sg64
(lp4715
g57
(g4395
g59
NtRp4716
(dp4717
g62
(dp4718
g4401
S'http://www.web2py.com/examples/default/download'
p4719
ssg71
g4712
sg64
(lp4720
g4471
(S's\x08\x00\x00\x00Download'
tRp4721
asbasbag57
(g4550
g59
NtRp4722
(dp4723
g62
(dp4724
sg71
g4708
sg64
(lp4725
g57
(g4395
g59
NtRp4726
(dp4727
g62
(dp4728
g4401
S'http://www.web2py.com/examples/default/support'
p4729
ssg71
g4722
sg64
(lp4730
g4471
(S's\x07\x00\x00\x00Support'
tRp4731
asbasbag57
(g4550
g59
NtRp4732
(dp4733
g62
(dp4734
sg71
g4708
sg64
(lp4735
g57
(g4395
g59
NtRp4736
(dp4737
g62
(dp4738
g4401
S'http://web2py.com/demo_admin'
p4739
ssg71
g4732
sg64
(lp4740
g4471
(S's\x04\x00\x00\x00Demo'
tRp4741
asbasbag57
(g4550
g59
NtRp4742
(dp4743
g62
(dp4744
sg71
g4708
sg64
(lp4745
g57
(g4395
g59
NtRp4746
(dp4747
g62
(dp4748
g4401
S'http://web2py.com/examples/default/examples'
p4749
ssg71
g4742
sg64
(lp4750
g4471
(S's\x0e\x00\x00\x00Quick Examples'
tRp4751
asbasbag57
(g4550
g59
NtRp4752
(dp4753
g62
(dp4754
sg71
g4708
sg64
(lp4755
g57
(g4395
g59
NtRp4756
(dp4757
g62
(dp4758
g4401
S'http://web2py.com/AlterEgo'
p4759
ssg71
g4752
sg64
(lp4760
g4471
(S's\x03\x00\x00\x00FAQ'
tRp4761
asbasbag57
(g4550
g59
NtRp4762
(dp4763
g62
(dp4764
sg71
g4708
sg64
(lp4765
g57
(g4395
g59
NtRp4766
(dp4767
g62
(dp4768
g4401
S'http://www.web2py.com/examples/default/videos/'
p4769
ssg71
g4762
sg64
(lp4770
g4471
(S's\x06\x00\x00\x00Videos'
tRp4771
asbasbag57
(g4550
g59
NtRp4772
(dp4773
g62
(dp4774
sg71
g4708
sg64
(lp4775
g57
(g4395
g59
NtRp4776
(dp4777
g62
(dp4778
g4401
S'http://web2py.com/appliances'
p4779
ssg71
g4772
sg64
(lp4780
g4471
(S's\x11\x00\x00\x00Free Applications'
tRp4781
asbasbag57
(g4550
g59
NtRp4782
(dp4783
g62
(dp4784
sg71
g4708
sg64
(lp4785
g57
(g4395
g59
NtRp4786
(dp4787
g62
(dp4788
g4401
S'http://web2py.com/plugins'
p4789
ssg71
g4782
sg64
(lp4790
g4471
(S's\x07\x00\x00\x00Plugins'
tRp4791
asbasbag57
(g4550
g59
NtRp4792
(dp4793
g62
(dp4794
sg71
g4708
sg64
(lp4795
g57
(g4395
g59
NtRp4796
(dp4797
g62
(dp4798
g4401
S'http://web2py.com/layouts'
p4799
ssg71
g4792
sg64
(lp4800
g4471
(S's\x07\x00\x00\x00Layouts'
tRp4801
asbasbag57
(g4550
g59
NtRp4802
(dp4803
g62
(dp4804
sg71
g4708
sg64
(lp4805
g57
(g4395
g59
NtRp4806
(dp4807
g62
(dp4808
g4401
S'http://web2pyslices.com/'
p4809
ssg71
g4802
sg64
(lp4810
g4471
(S's\x07\x00\x00\x00Recipes'
tRp4811
asbasbag57
(g4550
g59
NtRp4812
(dp4813
g62
(dp4814
sg71
g4708
sg64
(lp4815
g57
(g4395
g59
NtRp4816
(dp4817
g62
(dp4818
g4401
S'http://web2py.com/semantic'
p4819
ssg71
g4812
sg64
(lp4820
g4471
(S's\x08\x00\x00\x00Semantic'
tRp4821
asbasbasbasbag57
(g4550
g59
NtRp4822
(dp4823
g62
(dp4824
g4399
g4554
ssg71
g4580
sg64
(lp4825
g57
(g4395
g59
NtRp4826
(dp4827
g62
(dp4828
g4401
S'http://www.web2py.com/book'
p4829
ssg71
g4822
sg64
(lp4830
g4471
(S's\r\x00\x00\x00Documentation'
tRp4831
asbag57
(g4555
g59
NtRp4832
(dp4833
g62
(dp4834
g4399
g4561
ssg71
g4822
sg64
(lp4835
g57
(g4550
g59
NtRp4836
(dp4837
g62
(dp4838
sg71
g4832
sg64
(lp4839
g57
(g4395
g59
NtRp4840
(dp4841
g62
(dp4842
g4401
S'http://www.web2py.com/book/default/chapter/00'
p4843
ssg71
g4836
sg64
(lp4844
g4471
(S's\x07\x00\x00\x00Preface'
tRp4845
asbasbag57
(g4550
g59
NtRp4846
(dp4847
g62
(dp4848
sg71
g4832
sg64
(lp4849
g57
(g4395
g59
NtRp4850
(dp4851
g62
(dp4852
g4401
S'http://www.web2py.com/book/default/chapter/01'
p4853
ssg71
g4846
sg64
(lp4854
g4471
(S's\x0c\x00\x00\x00Introduction'
tRp4855
asbasbag57
(g4550
g59
NtRp4856
(dp4857
g62
(dp4858
sg71
g4832
sg64
(lp4859
g57
(g4395
g59
NtRp4860
(dp4861
g62
(dp4862
g4401
S'http://www.web2py.com/book/default/chapter/02'
p4863
ssg71
g4856
sg64
(lp4864
g4471
(S's\x06\x00\x00\x00Python'
tRp4865
asbasbag57
(g4550
g59
NtRp4866
(dp4867
g62
(dp4868
sg71
g4832
sg64
(lp4869
g57
(g4395
g59
NtRp4870
(dp4871
g62
(dp4872
g4401
S'http://www.web2py.com/book/default/chapter/03'
p4873
ssg71
g4866
sg64
(lp4874
g4471
(S's\x08\x00\x00\x00Overview'
tRp4875
asbasbag57
(g4550
g59
NtRp4876
(dp4877
g62
(dp4878
sg71
g4832
sg64
(lp4879
g57
(g4395
g59
NtRp4880
(dp4881
g62
(dp4882
g4401
S'http://www.web2py.com/book/default/chapter/04'
p4883
ssg71
g4876
sg64
(lp4884
g4471
(S's\x08\x00\x00\x00The Core'
tRp4885
asbasbag57
(g4550
g59
NtRp4886
(dp4887
g62
(dp4888
sg71
g4832
sg64
(lp4889
g57
(g4395
g59
NtRp4890
(dp4891
g62
(dp4892
g4401
S'http://www.web2py.com/book/default/chapter/05'
p4893
ssg71
g4886
sg64
(lp4894
g4471
(S's\t\x00\x00\x00The Views'
tRp4895
asbasbag57
(g4550
g59
NtRp4896
(dp4897
g62
(dp4898
sg71
g4832
sg64
(lp4899
g57
(g4395
g59
NtRp4900
(dp4901
g62
(dp4902
g4401
S'http://www.web2py.com/book/default/chapter/06'
p4903
ssg71
g4896
sg64
(lp4904
g4471
(S's\x08\x00\x00\x00Database'
tRp4905
asbasbag57
(g4550
g59
NtRp4906
(dp4907
g62
(dp4908
sg71
g4832
sg64
(lp4909
g57
(g4395
g59
NtRp4910
(dp4911
g62
(dp4912
g4401
S'http://www.web2py.com/book/default/chapter/07'
p4913
ssg71
g4906
sg64
(lp4914
g4471
(S's\x14\x00\x00\x00Forms and Validators'
tRp4915
asbasbag57
(g4550
g59
NtRp4916
(dp4917
g62
(dp4918
sg71
g4832
sg64
(lp4919
g57
(g4395
g59
NtRp4920
(dp4921
g62
(dp4922
g4401
S'http://www.web2py.com/book/default/chapter/08'
p4923
ssg71
g4916
sg64
(lp4924
g4471
(S's\r\x00\x00\x00Email and SMS'
tRp4925
asbasbag57
(g4550
g59
NtRp4926
(dp4927
g62
(dp4928
sg71
g4832
sg64
(lp4929
g57
(g4395
g59
NtRp4930
(dp4931
g62
(dp4932
g4401
S'http://www.web2py.com/book/default/chapter/09'
p4933
ssg71
g4926
sg64
(lp4934
g4471
(S's\x0e\x00\x00\x00Access Control'
tRp4935
asbasbag57
(g4550
g59
NtRp4936
(dp4937
g62
(dp4938
sg71
g4832
sg64
(lp4939
g57
(g4395
g59
NtRp4940
(dp4941
g62
(dp4942
g4401
S'http://www.web2py.com/book/default/chapter/10'
p4943
ssg71
g4936
sg64
(lp4944
g4471
(S's\x08\x00\x00\x00Services'
tRp4945
asbasbag57
(g4550
g59
NtRp4946
(dp4947
g62
(dp4948
sg71
g4832
sg64
(lp4949
g57
(g4395
g59
NtRp4950
(dp4951
g62
(dp4952
g4401
S'http://www.web2py.com/book/default/chapter/11'
p4953
ssg71
g4946
sg64
(lp4954
g4471
(S's\x0c\x00\x00\x00Ajax Recipes'
tRp4955
asbasbag57
(g4550
g59
NtRp4956
(dp4957
g62
(dp4958
sg71
g4832
sg64
(lp4959
g57
(g4395
g59
NtRp4960
(dp4961
g62
(dp4962
g4401
S'http://www.web2py.com/book/default/chapter/12'
p4963
ssg71
g4956
sg64
(lp4964
g4471
(S's\x16\x00\x00\x00Components and Plugins'
tRp4965
asbasbag57
(g4550
g59
NtRp4966
(dp4967
g62
(dp4968
sg71
g4832
sg64
(lp4969
g57
(g4395
g59
NtRp4970
(dp4971
g62
(dp4972
g4401
S'http://www.web2py.com/book/default/chapter/13'
p4973
ssg71
g4966
sg64
(lp4974
g4471
(S's\x12\x00\x00\x00Deployment Recipes'
tRp4975
asbasbag57
(g4550
g59
NtRp4976
(dp4977
g62
(dp4978
sg71
g4832
sg64
(lp4979
g57
(g4395
g59
NtRp4980
(dp4981
g62
(dp4982
g4401
S'http://www.web2py.com/book/default/chapter/14'
p4983
ssg71
g4976
sg64
(lp4984
g4471
(S's\r\x00\x00\x00Other Recipes'
tRp4985
asbasbag57
(g4550
g59
NtRp4986
(dp4987
g62
(dp4988
sg71
g4832
sg64
(lp4989
g57
(g4395
g59
NtRp4990
(dp4991
g62
(dp4992
g4401
S'http://stores.lulu.com/web2py'
p4993
ssg71
g4986
sg64
(lp4994
g4471
(S's\r\x00\x00\x00Buy this book'
tRp4995
asbasbasbasbag57
(g4550
g59
NtRp4996
(dp4997
g62
(dp4998
g4399
g4554
ssg71
g4580
sg64
(lp4999
g57
(g4395
g59
NtRp5000
(dp5001
g62
(dp5002
S'_onclick'
p5003
S'javascript:void(0);return false;'
p5004
sg4401
S'#'
ssg71
g4996
sg64
(lp5005
g4471
(S's\t\x00\x00\x00Community'
tRp5006
asbag57
(g4555
g59
NtRp5007
(dp5008
g62
(dp5009
g4399
g4561
ssg71
g4996
sg64
(lp5010
g57
(g4550
g59
NtRp5011
(dp5012
g62
(dp5013
sg71
g5007
sg64
(lp5014
g57
(g4395
g59
NtRp5015
(dp5016
g62
(dp5017
g4401
S'http://www.web2py.com/examples/default/usergroups'
p5018
ssg71
g5011
sg64
(lp5019
g4471
(S's\x06\x00\x00\x00Groups'
tRp5020
asbasbag57
(g4550
g59
NtRp5021
(dp5022
g62
(dp5023
sg71
g5007
sg64
(lp5024
g57
(g4395
g59
NtRp5025
(dp5026
g62
(dp5027
g4401
S'http://twitter.com/web2py'
p5028
ssg71
g5021
sg64
(lp5029
g4471
(S's\x07\x00\x00\x00Twitter'
tRp5030
asbasbag57
(g4550
g59
NtRp5031
(dp5032
g62
(dp5033
sg71
g5007
sg64
(lp5034
g57
(g4395
g59
NtRp5035
(dp5036
g62
(dp5037
g4401
S'http://webchat.freenode.net/?channels=web2py'
p5038
ssg71
g5031
sg64
(lp5039
g4471
(S's\t\x00\x00\x00Live Chat'
tRp5040
asbasbasbasbag57
(g4550
g59
NtRp5041
(dp5042
g62
(dp5043
g4399
g4554
ssg71
g4580
sg64
(lp5044
g57
(g4395
g59
NtRp5045
(dp5046
g62
(dp5047
g5003
g5004
sg4401
S'#'
ssg71
g5041
sg64
(lp5048
g4471
(S's\x07\x00\x00\x00Plugins'
tRp5049
asbag57
(g4555
g59
NtRp5050
(dp5051
g62
(dp5052
g4399
g4561
ssg71
g5041
sg64
(lp5053
g57
(g4550
g59
NtRp5054
(dp5055
g62
(dp5056
sg71
g5050
sg64
(lp5057
g57
(g4395
g59
NtRp5058
(dp5059
g62
(dp5060
g4401
S'http://web2py.com/examples/default/download'
p5061
ssg71
g5054
sg64
(lp5062
S'plugin_wiki'
p5063
asbasbag57
(g4550
g59
NtRp5064
(dp5065
g62
(dp5066
sg71
g5050
sg64
(lp5067
g57
(g4395
g59
NtRp5068
(dp5069
g62
(dp5070
g4401
g4789
ssg71
g5064
sg64
(lp5071
g4471
(S's\r\x00\x00\x00Other Plugins'
tRp5072
asbasbag57
(g4550
g59
NtRp5073
(dp5074
g62
(dp5075
sg71
g5050
sg64
(lp5076
g57
(g4395
g59
NtRp5077
(dp5078
g62
(dp5079
g4401
g4799
ssg71
g5073
sg64
(lp5080
g4471
(S's\x0e\x00\x00\x00Layout Plugins'
tRp5081
asbasbasbasbasbasbsg64
(lp5082
g4542
asbsg64
(lp5083
g4373
asbasbasbasbag57
(g73
g59
NtRp5084
(dp5085
g62
(dp5086
sg71
g4526
sg64
(lp5087
g57
(g78
g59
NtRp5088
(dp5089
g62
(dp5090
sg71
g5084
sg64
(lp5091
g57
(g58
g59
NtRp5092
(dp5093
g62
(dp5094
g70
I3
ssg71
g5088
sg64
(lp5095
g100
asbasbasbag57
(g73
g59
NtRp5096
(dp5097
g62
(dp5098
sg71
g4526
sg64
(lp5099
g57
(g78
g59
NtRp5100
(dp5101
g62
(dp5102
sg71
g5096
sg64
(lp5103
g57
(g58
g59
NtRp5104
(dp5105
g62
(dp5106
g70
I3
ssg71
g5100
sg64
(lp5107
g4549
asbasbasbag57
(g73
g59
NtRp5108
(dp5109
g62
(dp5110
sg71
g4526
sg64
(lp5111
g57
(g78
g59
NtRp5112
(dp5113
g62
(dp5114
sg71
g5108
sg64
(lp5115
g57
(g58
g59
NtRp5116
(dp5117
g62
(dp5118
g70
I3
ssg71
g5112
sg64
(lp5119
g57
(g66
g59
NtRp5120
(dp5121
g62
(dp5122
g70
I2
ssg71
Nsg64
(lp5123
g57
(g73
g59
NtRp5124
(dp5125
g62
(dp5126
sg71
g5120
sg64
(lp5127
g57
(g78
g59
NtRp5128
(dp5129
g62
(dp5130
sg71
g5124
sg64
(lp5131
g57
(g58
g59
NtRp5132
(dp5133
g62
(dp5134
g70
I2
ssg71
g5128
sg64
(lp5135
g57
(g66
g59
NtRp5136
(dp5137
g62
(dp5138
g70
I1
ssg71
Nsg64
(lp5139
g57
(g73
g59
NtRp5140
(dp5141
g62
(dp5142
sg71
g5136
sg64
(lp5143
g57
(g78
g59
NtRp5144
(dp5145
g62
(dp5146
sg71
g5140
sg64
(lp5147
g57
(g58
g59
NtRp5148
(dp5149
g62
(dp5150
g70
I1
ssg71
g5144
sg64
(lp5151
g4593
asbasbasbag57
(g73
g59
NtRp5152
(dp5153
g62
(dp5154
sg71
g5136
sg64
(lp5155
g57
(g78
g59
NtRp5156
(dp5157
g62
(dp5158
sg71
g5152
sg64
(lp5159
g57
(g58
g59
NtRp5160
(dp5161
g62
(dp5162
g70
I1
ssg71
g5156
sg64
(lp5163
I00
asbasbasbag57
(g73
g59
NtRp5164
(dp5165
g62
(dp5166
sg71
g5136
sg64
(lp5167
g57
(g78
g59
NtRp5168
(dp5169
g62
(dp5170
sg71
g5164
sg64
(lp5171
g57
(g58
g59
NtRp5172
(dp5173
g62
(dp5174
g70
I1
ssg71
g5168
sg64
(lp5175
g4591
asbasbasbasbasbasbasbag57
(g73
g59
NtRp5176
(dp5177
g62
(dp5178
sg71
g5120
sg64
(lp5179
g57
(g78
g59
NtRp5180
(dp5181
g62
(dp5182
sg71
g5176
sg64
(lp5183
g57
(g58
g59
NtRp5184
(dp5185
g62
(dp5186
g70
I2
ssg71
g5180
sg64
(lp5187
g57
(g66
g59
NtRp5188
(dp5189
g62
(dp5190
g70
I1
ssg71
Nsg64
(lp5191
g57
(g73
g59
NtRp5192
(dp5193
g62
(dp5194
sg71
g5188
sg64
(lp5195
g57
(g78
g59
NtRp5196
(dp5197
g62
(dp5198
sg71
g5192
sg64
(lp5199
g57
(g58
g59
NtRp5200
(dp5201
g62
(dp5202
g70
I1
ssg71
g5196
sg64
(lp5203
g4603
asbasbasbag57
(g73
g59
NtRp5204
(dp5205
g62
(dp5206
sg71
g5188
sg64
(lp5207
g57
(g78
g59
NtRp5208
(dp5209
g62
(dp5210
sg71
g5204
sg64
(lp5211
g57
(g58
g59
NtRp5212
(dp5213
g62
(dp5214
g70
I1
ssg71
g5208
sg64
(lp5215
I00
asbasbasbag57
(g73
g59
NtRp5216
(dp5217
g62
(dp5218
sg71
g5188
sg64
(lp5219
g57
(g78
g59
NtRp5220
(dp5221
g62
(dp5222
sg71
g5216
sg64
(lp5223
g57
(g58
g59
NtRp5224
(dp5225
g62
(dp5226
g70
I1
ssg71
g5220
sg64
(lp5227
g4601
asbasbasbag57
(g73
g59
NtRp5228
(dp5229
g62
(dp5230
sg71
g5188
sg64
(lp5231
g57
(g78
g59
NtRp5232
(dp5233
g62
(dp5234
sg71
g5228
sg64
(lp5235
g57
(g58
g59
NtRp5236
(dp5237
g62
(dp5238
g70
I1
ssg71
g5232
sg64
(lp5239
(lp5240
(g4617
I00
g4615
tp5241
a(g4627
I00
g4625
tp5242
a(g4637
I00
g4635
tp5243
a(g4647
I00
g4645
tp5244
a(g4657
I00
g4655
tp5245
a(g4667
I00
g4665
tp5246
a(g4677
I00
g4675
tp5247
a(g4687
I00
g4685
tp5248
a(g4697
I00
g4695
tp5249
aasbasbasbasbasbasbasbag57
(g73
g59
NtRp5250
(dp5251
g62
(dp5252
sg71
g5120
sg64
(lp5253
g57
(g78
g59
NtRp5254
(dp5255
g62
(dp5256
sg71
g5250
sg64
(lp5257
g57
(g58
g59
NtRp5258
(dp5259
g62
(dp5260
g70
I2
ssg71
g5254
sg64
(lp5261
g57
(g66
g59
NtRp5262
(dp5263
g62
(dp5264
g70
I1
ssg71
Nsg64
(lp5265
g57
(g73
g59
NtRp5266
(dp5267
g62
(dp5268
sg71
g5262
sg64
(lp5269
g57
(g78
g59
NtRp5270
(dp5271
g62
(dp5272
sg71
g5266
sg64
(lp5273
g57
(g58
g59
NtRp5274
(dp5275
g62
(dp5276
g70
I1
ssg71
g5270
sg64
(lp5277
g4707
asbasbasbag57
(g73
g59
NtRp5278
(dp5279
g62
(dp5280
sg71
g5262
sg64
(lp5281
g57
(g78
g59
NtRp5282
(dp5283
g62
(dp5284
sg71
g5278
sg64
(lp5285
g57
(g58
g59
NtRp5286
(dp5287
g62
(dp5288
g70
I1
ssg71
g5282
sg64
(lp5289
I00
asbasbasbag57
(g73
g59
NtRp5290
(dp5291
g62
(dp5292
sg71
g5262
sg64
(lp5293
g57
(g78
g59
NtRp5294
(dp5295
g62
(dp5296
sg71
g5290
sg64
(lp5297
g57
(g58
g59
NtRp5298
(dp5299
g62
(dp5300
g70
I1
ssg71
g5294
sg64
(lp5301
g4705
asbasbasbag57
(g73
g59
NtRp5302
(dp5303
g62
(dp5304
sg71
g5262
sg64
(lp5305
g57
(g78
g59
NtRp5306
(dp5307
g62
(dp5308
sg71
g5302
sg64
(lp5309
g57
(g58
g59
NtRp5310
(dp5311
g62
(dp5312
g70
I1
ssg71
g5306
sg64
(lp5313
(lp5314
(g4721
I00
g4719
tp5315
a(g4731
I00
g4729
tp5316
a(g4741
I00
g4739
tp5317
a(g4751
I00
g4749
tp5318
a(g4761
I00
g4759
tp5319
a(g4771
I00
g4769
tp5320
a(g4781
I00
g4779
tp5321
a(g4791
I00
g4789
tp5322
a(g4801
I00
g4799
tp5323
a(g4811
I00
g4809
tp5324
a(g4821
I00
g4819
tp5325
aasbasbasbasbasbasbasbag57
(g73
g59
NtRp5326
(dp5327
g62
(dp5328
sg71
g5120
sg64
(lp5329
g57
(g78
g59
NtRp5330
(dp5331
g62
(dp5332
sg71
g5326
sg64
(lp5333
g57
(g58
g59
NtRp5334
(dp5335
g62
(dp5336
g70
I2
ssg71
g5330
sg64
(lp5337
g57
(g66
g59
NtRp5338
(dp5339
g62
(dp5340
g70
I1
ssg71
Nsg64
(lp5341
g57
(g73
g59
NtRp5342
(dp5343
g62
(dp5344
sg71
g5338
sg64
(lp5345
g57
(g78
g59
NtRp5346
(dp5347
g62
(dp5348
sg71
g5342
sg64
(lp5349
g57
(g58
g59
NtRp5350
(dp5351
g62
(dp5352
g70
I1
ssg71
g5346
sg64
(lp5353
g4831
asbasbasbag57
(g73
g59
NtRp5354
(dp5355
g62
(dp5356
sg71
g5338
sg64
(lp5357
g57
(g78
g59
NtRp5358
(dp5359
g62
(dp5360
sg71
g5354
sg64
(lp5361
g57
(g58
g59
NtRp5362
(dp5363
g62
(dp5364
g70
I1
ssg71
g5358
sg64
(lp5365
I00
asbasbasbag57
(g73
g59
NtRp5366
(dp5367
g62
(dp5368
sg71
g5338
sg64
(lp5369
g57
(g78
g59
NtRp5370
(dp5371
g62
(dp5372
sg71
g5366
sg64
(lp5373
g57
(g58
g59
NtRp5374
(dp5375
g62
(dp5376
g70
I1
ssg71
g5370
sg64
(lp5377
g4829
asbasbasbag57
(g73
g59
NtRp5378
(dp5379
g62
(dp5380
sg71
g5338
sg64
(lp5381
g57
(g78
g59
NtRp5382
(dp5383
g62
(dp5384
sg71
g5378
sg64
(lp5385
g57
(g58
g59
NtRp5386
(dp5387
g62
(dp5388
g70
I1
ssg71
g5382
sg64
(lp5389
(lp5390
(g4845
I00
g4843
tp5391
a(g4855
I00
g4853
tp5392
a(g4865
I00
g4863
tp5393
a(g4875
I00
g4873
tp5394
a(g4885
I00
g4883
tp5395
a(g4895
I00
g4893
tp5396
a(g4905
I00
g4903
tp5397
a(g4915
I00
g4913
tp5398
a(g4925
I00
g4923
tp5399
a(g4935
I00
g4933
tp5400
a(g4945
I00
g4943
tp5401
a(g4955
I00
g4953
tp5402
a(g4965
I00
g4963
tp5403
a(g4975
I00
g4973
tp5404
a(g4985
I00
g4983
tp5405
a(g4995
I00
g4993
tp5406
aasbasbasbasbasbasbasbag57
(g73
g59
NtRp5407
(dp5408
g62
(dp5409
sg71
g5120
sg64
(lp5410
g57
(g78
g59
NtRp5411
(dp5412
g62
(dp5413
sg71
g5407
sg64
(lp5414
g57
(g58
g59
NtRp5415
(dp5416
g62
(dp5417
g70
I2
ssg71
g5411
sg64
(lp5418
g57
(g66
g59
NtRp5419
(dp5420
g62
(dp5421
g70
I1
ssg71
Nsg64
(lp5422
g57
(g73
g59
NtRp5423
(dp5424
g62
(dp5425
sg71
g5419
sg64
(lp5426
g57
(g78
g59
NtRp5427
(dp5428
g62
(dp5429
sg71
g5423
sg64
(lp5430
g57
(g58
g59
NtRp5431
(dp5432
g62
(dp5433
g70
I1
ssg71
g5427
sg64
(lp5434
g5006
asbasbasbag57
(g73
g59
NtRp5435
(dp5436
g62
(dp5437
sg71
g5419
sg64
(lp5438
g57
(g78
g59
NtRp5439
(dp5440
g62
(dp5441
sg71
g5435
sg64
(lp5442
g57
(g58
g59
NtRp5443
(dp5444
g62
(dp5445
g70
I1
ssg71
g5439
sg64
(lp5446
I00
asbasbasbag57
(g73
g59
NtRp5447
(dp5448
g62
(dp5449
sg71
g5419
sg64
(lp5450
g57
(g78
g59
NtRp5451
(dp5452
g62
(dp5453
sg71
g5447
sg64
(lp5454
g57
(g58
g59
NtRp5455
(dp5456
g62
(dp5457
g70
I1
ssg71
g5451
sg64
(lp5458
Nasbasbasbag57
(g73
g59
NtRp5459
(dp5460
g62
(dp5461
sg71
g5419
sg64
(lp5462
g57
(g78
g59
NtRp5463
(dp5464
g62
(dp5465
sg71
g5459
sg64
(lp5466
g57
(g58
g59
NtRp5467
(dp5468
g62
(dp5469
g70
I1
ssg71
g5463
sg64
(lp5470
(lp5471
(g5020
I00
g5018
tp5472
a(g5030
I00
g5028
tp5473
a(g5040
I00
g5038
tp5474
aasbasbasbasbasbasbasbag57
(g73
g59
NtRp5475
(dp5476
g62
(dp5477
sg71
g5120
sg64
(lp5478
g57
(g78
g59
NtRp5479
(dp5480
g62
(dp5481
sg71
g5475
sg64
(lp5482
g57
(g58
g59
NtRp5483
(dp5484
g62
(dp5485
g70
I2
ssg71
g5479
sg64
(lp5486
g57
(g66
g59
NtRp5487
(dp5488
g62
(dp5489
g70
I1
ssg71
Nsg64
(lp5490
g57
(g73
g59
NtRp5491
(dp5492
g62
(dp5493
sg71
g5487
sg64
(lp5494
g57
(g78
g59
NtRp5495
(dp5496
g62
(dp5497
sg71
g5491
sg64
(lp5498
g57
(g58
g59
NtRp5499
(dp5500
g62
(dp5501
g70
I1
ssg71
g5495
sg64
(lp5502
g5049
asbasbasbag57
(g73
g59
NtRp5503
(dp5504
g62
(dp5505
sg71
g5487
sg64
(lp5506
g57
(g78
g59
NtRp5507
(dp5508
g62
(dp5509
sg71
g5503
sg64
(lp5510
g57
(g58
g59
NtRp5511
(dp5512
g62
(dp5513
g70
I1
ssg71
g5507
sg64
(lp5514
I00
asbasbasbag57
(g73
g59
NtRp5515
(dp5516
g62
(dp5517
sg71
g5487
sg64
(lp5518
g57
(g78
g59
NtRp5519
(dp5520
g62
(dp5521
sg71
g5515
sg64
(lp5522
g57
(g58
g59
NtRp5523
(dp5524
g62
(dp5525
g70
I1
ssg71
g5519
sg64
(lp5526
Nasbasbasbag57
(g73
g59
NtRp5527
(dp5528
g62
(dp5529
sg71
g5487
sg64
(lp5530
g57
(g78
g59
NtRp5531
(dp5532
g62
(dp5533
sg71
g5527
sg64
(lp5534
g57
(g58
g59
NtRp5535
(dp5536
g62
(dp5537
g70
I1
ssg71
g5531
sg64
(lp5538
(lp5539
(g5063
I00
g5061
tp5540
a(g5072
I00
g4789
tp5541
a(g5081
I00
g4799
tp5542
aasbasbasbasbasbasbasbasbasbasbasbasbasbasbasbasbasbasbasbag57
(g73
g59
NtRp5543
(dp5544
g62
(dp5545
sg71
g3833
sg64
(lp5546
g57
(g78
g59
NtRp5547
(dp5548
g62
(dp5549
g82
g83
ssg71
g5543
sg64
(lp5550
S'meta'
p5551
asbag57
(g78
g59
NtRp5552
(dp5553
g62
(dp5554
g89
g90
ssg71
g5543
sg64
(lp5555
S':'
asbag57
(g78
g59
NtRp5556
(dp5557
g62
(dp5558
sg71
g5543
sg64
(lp5559
g57
(g58
g59
NtRp5560
(dp5561
g62
(dp5562
g70
I5
ssg71
g5556
sg64
(lp5563
g57
(g66
g59
NtRp5564
(dp5565
g62
(dp5566
g70
I4
ssg71
Nsg64
(lp5567
g57
(g73
g59
NtRp5568
(dp5569
g62
(dp5570
sg71
g5564
sg64
(lp5571
g57
(g78
g59
NtRp5572
(dp5573
g62
(dp5574
g82
g83
ssg71
g5568
sg64
(lp5575
S'author'
p5576
asbag57
(g78
g59
NtRp5577
(dp5578
g62
(dp5579
g89
g90
ssg71
g5568
sg64
(lp5580
S':'
asbag57
(g78
g59
NtRp5581
(dp5582
g62
(dp5583
sg71
g5568
sg64
(lp5584
g57
(g58
g59
NtRp5585
(dp5586
g62
(dp5587
g70
I4
ssg71
g5581
sg64
(lp5588
S'Your Name <you@example.com>'
p5589
asbasbasbag57
(g73
g59
NtRp5590
(dp5591
g62
(dp5592
sg71
g5564
sg64
(lp5593
g57
(g78
g59
NtRp5594
(dp5595
g62
(dp5596
g82
g83
ssg71
g5590
sg64
(lp5597
S'description'
p5598
asbag57
(g78
g59
NtRp5599
(dp5600
g62
(dp5601
g89
g90
ssg71
g5590
sg64
(lp5602
S':'
asbag57
(g78
g59
NtRp5603
(dp5604
g62
(dp5605
sg71
g5590
sg64
(lp5606
g57
(g58
g59
NtRp5607
(dp5608
g62
(dp5609
g70
I4
ssg71
g5603
sg64
(lp5610
S'a cool new app'
p5611
asbasbasbag57
(g73
g59
NtRp5612
(dp5613
g62
(dp5614
sg71
g5564
sg64
(lp5615
g57
(g78
g59
NtRp5616
(dp5617
g62
(dp5618
g82
g83
ssg71
g5612
sg64
(lp5619
S'generator'
p5620
asbag57
(g78
g59
NtRp5621
(dp5622
g62
(dp5623
g89
g90
ssg71
g5612
sg64
(lp5624
S':'
asbag57
(g78
g59
NtRp5625
(dp5626
g62
(dp5627
sg71
g5612
sg64
(lp5628
g57
(g58
g59
NtRp5629
(dp5630
g62
(dp5631
g70
I4
ssg71
g5625
sg64
(lp5632
S'Web2py Web Framework'
p5633
asbasbasbag57
(g73
g59
NtRp5634
(dp5635
g62
(dp5636
sg71
g5564
sg64
(lp5637
g57
(g78
g59
NtRp5638
(dp5639
g62
(dp5640
g82
g83
ssg71
g5634
sg64
(lp5641
S'keywords'
p5642
asbag57
(g78
g59
NtRp5643
(dp5644
g62
(dp5645
g89
g90
ssg71
g5634
sg64
(lp5646
S':'
asbag57
(g78
g59
NtRp5647
(dp5648
g62
(dp5649
sg71
g5634
sg64
(lp5650
g57
(g58
g59
NtRp5651
(dp5652
g62
(dp5653
g70
I4
ssg71
g5647
sg64
(lp5654
S'web2py, python, framework'
p5655
asbasbasbasbasbasbasbag57
(g73
g59
NtRp5656
(dp5657
g62
(dp5658
sg71
g3833
sg64
(lp5659
g57
(g78
g59
NtRp5660
(dp5661
g62
(dp5662
g82
g83
ssg71
g5656
sg64
(lp5663
S'models_to_run'
p5664
asbag57
(g78
g59
NtRp5665
(dp5666
g62
(dp5667
g89
g90
ssg71
g5656
sg64
(lp5668
S':'
asbag57
(g78
g59
NtRp5669
(dp5670
g62
(dp5671
sg71
g5656
sg64
(lp5672
g57
(g58
g59
NtRp5673
(dp5674
g62
(dp5675
g70
I5
ssg71
g5669
sg64
(lp5676
g57
(g66
g59
NtRp5677
(dp5678
g62
(dp5679
g70
I4
ssg71
Nsg64
(lp5680
g57
(g73
g59
NtRp5681
(dp5682
g62
(dp5683
sg71
g5677
sg64
(lp5684
g57
(g78
g59
NtRp5685
(dp5686
g62
(dp5687
sg71
g5681
sg64
(lp5688
g57
(g58
g59
NtRp5689
(dp5690
g62
(dp5691
g70
I4
ssg71
g5685
sg64
(lp5692
S'^\\w+\\.py$'
p5693
asbasbasbag57
(g73
g59
NtRp5694
(dp5695
g62
(dp5696
sg71
g5677
sg64
(lp5697
g57
(g78
g59
NtRp5698
(dp5699
g62
(dp5700
sg71
g5694
sg64
(lp5701
g57
(g58
g59
NtRp5702
(dp5703
g62
(dp5704
g70
I4
ssg71
g5698
sg64
(lp5705
S'^default/\\w+\\.py$'
p5706
asbasbasbag57
(g73
g59
NtRp5707
(dp5708
g62
(dp5709
sg71
g5677
sg64
(lp5710
g57
(g78
g59
NtRp5711
(dp5712
g62
(dp5713
sg71
g5707
sg64
(lp5714
g57
(g58
g59
NtRp5715
(dp5716
g62
(dp5717
g70
I4
ssg71
g5711
sg64
(lp5718
S'^default/prin/\\w+\\.py$'
p5719
asbasbasbasbasbasbasbag57
(g73
g59
NtRp5720
(dp5721
g62
(dp5722
sg71
g3833
sg64
(lp5723
g57
(g78
g59
NtRp5724
(dp5725
g62
(dp5726
g82
g83
ssg71
g5720
sg64
(lp5727
S'postprocessing'
p5728
asbag57
(g78
g59
NtRp5729
(dp5730
g62
(dp5731
g89
g90
ssg71
g5720
sg64
(lp5732
S':'
asbag57
(g78
g59
NtRp5733
(dp5734
g62
(dp5735
sg71
g5720
sg64
(lp5736
g57
(g58
g59
NtRp5737
(dp5738
g62
(dp5739
g70
I5
ssg71
g5733
sg64
(lp5740
g57
(g66
g59
NtRp5741
(dp5742
g62
(dp5743
g70
I4
ssg71
Nsg64
(lp5744
sbasbasbasbag57
(g73
g59
NtRp5745
(dp5746
g62
(dp5747
sg71
g3833
sg64
(lp5748
g57
(g78
g59
NtRp5749
(dp5750
g62
(dp5751
g82
g83
ssg71
g5745
sg64
(lp5752
S'session_cookie_expires'
p5753
asbag57
(g78
g59
NtRp5754
(dp5755
g62
(dp5756
g89
g90
ssg71
g5745
sg64
(lp5757
S':'
asbag57
(g78
g59
NtRp5758
(dp5759
g62
(dp5760
sg71
g5745
sg64
(lp5761
g57
(g58
g59
NtRp5762
(dp5763
g62
(dp5764
g70
I5
ssg71
g5758
sg64
(lp5765
S'None'
p5766
asbasbasbag57
(g73
g59
NtRp5767
(dp5768
g62
(dp5769
sg71
g3833
sg64
(lp5770
g57
(g78
g59
NtRp5771
(dp5772
g62
(dp5773
g82
g83
ssg71
g5767
sg64
(lp5774
S'session_data_name'
p5775
asbag57
(g78
g59
NtRp5776
(dp5777
g62
(dp5778
g89
g90
ssg71
g5767
sg64
(lp5779
S':'
asbag57
(g78
g59
NtRp5780
(dp5781
g62
(dp5782
sg71
g5767
sg64
(lp5783
g57
(g58
g59
NtRp5784
(dp5785
g62
(dp5786
g70
I5
ssg71
g5780
sg64
(lp5787
S'session_data_shipra'
p5788
asbasbasbag57
(g73
g59
NtRp5789
(dp5790
g62
(dp5791
sg71
g3833
sg64
(lp5792
g57
(g78
g59
NtRp5793
(dp5794
g62
(dp5795
g82
g83
ssg71
g5789
sg64
(lp5796
S'session_file'
p5797
asbag57
(g78
g59
NtRp5798
(dp5799
g62
(dp5800
g89
g90
ssg71
g5789
sg64
(lp5801
S':'
asbag57
(g78
g59
NtRp5802
(dp5803
g62
(dp5804
sg71
g5789
sg64
(lp5805
g57
(g58
g59
NtRp5806
(dp5807
g62
(dp5808
g70
I5
ssg71
g5802
sg64
(lp5809
S"<open file '/home/shipra/Desktop/Semester 1.2/ITWS-2/web2py/applications/shipra/sessions/127.0.0.1-2fce383b-4743-443d-a083-f77ae46b9e91', mode 'rb+' at 0x7f8104075c00>"
p5810
asbasbasbag57
(g73
g59
NtRp5811
(dp5812
g62
(dp5813
sg71
g3833
sg64
(lp5814
g57
(g78
g59
NtRp5815
(dp5816
g62
(dp5817
g82
g83
ssg71
g5811
sg64
(lp5818
S'session_filename'
p5819
asbag57
(g78
g59
NtRp5820
(dp5821
g62
(dp5822
g89
g90
ssg71
g5811
sg64
(lp5823
S':'
asbag57
(g78
g59
NtRp5824
(dp5825
g62
(dp5826
sg71
g5811
sg64
(lp5827
g57
(g58
g59
NtRp5828
(dp5829
g62
(dp5830
g70
I5
ssg71
g5824
sg64
(lp5831
S'/home/shipra/Desktop/Semester 1.2/ITWS-2/web2py/applications/shipra/sessions/127.0.0.1-2fce383b-4743-443d-a083-f77ae46b9e91'
p5832
asbasbasbag57
(g73
g59
NtRp5833
(dp5834
g62
(dp5835
sg71
g3833
sg64
(lp5836
g57
(g78
g59
NtRp5837
(dp5838
g62
(dp5839
g82
g83
ssg71
g5833
sg64
(lp5840
S'session_id'
p5841
asbag57
(g78
g59
NtRp5842
(dp5843
g62
(dp5844
g89
g90
ssg71
g5833
sg64
(lp5845
S':'
asbag57
(g78
g59
NtRp5846
(dp5847
g62
(dp5848
sg71
g5833
sg64
(lp5849
g57
(g58
g59
NtRp5850
(dp5851
g62
(dp5852
g70
I5
ssg71
g5846
sg64
(lp5853
g661
asbasbasbag57
(g73
g59
NtRp5854
(dp5855
g62
(dp5856
sg71
g3833
sg64
(lp5857
g57
(g78
g59
NtRp5858
(dp5859
g62
(dp5860
g82
g83
ssg71
g5854
sg64
(lp5861
S'session_id_name'
p5862
asbag57
(g78
g59
NtRp5863
(dp5864
g62
(dp5865
g89
g90
ssg71
g5854
sg64
(lp5866
S':'
asbag57
(g78
g59
NtRp5867
(dp5868
g62
(dp5869
sg71
g5854
sg64
(lp5870
g57
(g58
g59
NtRp5871
(dp5872
g62
(dp5873
g70
I5
ssg71
g5867
sg64
(lp5874
g3890
asbasbasbag57
(g73
g59
NtRp5875
(dp5876
g62
(dp5877
sg71
g3833
sg64
(lp5878
g57
(g78
g59
NtRp5879
(dp5880
g62
(dp5881
g82
g83
ssg71
g5875
sg64
(lp5882
S'session_locked'
p5883
asbag57
(g78
g59
NtRp5884
(dp5885
g62
(dp5886
g89
g90
ssg71
g5875
sg64
(lp5887
S':'
asbag57
(g78
g59
NtRp5888
(dp5889
g62
(dp5890
sg71
g5875
sg64
(lp5891
g57
(g58
g59
NtRp5892
(dp5893
g62
(dp5894
g70
I5
ssg71
g5888
sg64
(lp5895
g1933
asbasbasbag57
(g73
g59
NtRp5896
(dp5897
g62
(dp5898
sg71
g3833
sg64
(lp5899
g57
(g78
g59
NtRp5900
(dp5901
g62
(dp5902
g82
g83
ssg71
g5896
sg64
(lp5903
S'session_new'
p5904
asbag57
(g78
g59
NtRp5905
(dp5906
g62
(dp5907
g89
g90
ssg71
g5896
sg64
(lp5908
S':'
asbag57
(g78
g59
NtRp5909
(dp5910
g62
(dp5911
sg71
g5896
sg64
(lp5912
g57
(g58
g59
NtRp5913
(dp5914
g62
(dp5915
g70
I5
ssg71
g5909
sg64
(lp5916
g100
asbasbasbag57
(g73
g59
NtRp5917
(dp5918
g62
(dp5919
sg71
g3833
sg64
(lp5920
g57
(g78
g59
NtRp5921
(dp5922
g62
(dp5923
g82
g83
ssg71
g5917
sg64
(lp5924
S'session_storage_type'
p5925
asbag57
(g78
g59
NtRp5926
(dp5927
g62
(dp5928
g89
g90
ssg71
g5917
sg64
(lp5929
S':'
asbag57
(g78
g59
NtRp5930
(dp5931
g62
(dp5932
sg71
g5917
sg64
(lp5933
g57
(g58
g59
NtRp5934
(dp5935
g62
(dp5936
g70
I5
ssg71
g5930
sg64
(lp5937
g3343
asbasbasbag57
(g73
g59
NtRp5938
(dp5939
g62
(dp5940
sg71
g3833
sg64
(lp5941
g57
(g78
g59
NtRp5942
(dp5943
g62
(dp5944
g82
g83
ssg71
g5938
sg64
(lp5945
S'status'
p5946
asbag57
(g78
g59
NtRp5947
(dp5948
g62
(dp5949
g89
g90
ssg71
g5938
sg64
(lp5950
S':'
asbag57
(g78
g59
NtRp5951
(dp5952
g62
(dp5953
sg71
g5938
sg64
(lp5954
g57
(g58
g59
NtRp5955
(dp5956
g62
(dp5957
g70
I5
ssg71
g5951
sg64
(lp5958
S'200'
p5959
asbasbasbag57
(g73
g59
NtRp5960
(dp5961
g62
(dp5962
sg71
g3833
sg64
(lp5963
g57
(g78
g59
NtRp5964
(dp5965
g62
(dp5966
g82
g83
ssg71
g5960
sg64
(lp5967
S'subtitle'
p5968
asbag57
(g78
g59
NtRp5969
(dp5970
g62
(dp5971
g89
g90
ssg71
g5960
sg64
(lp5972
S':'
asbag57
(g78
g59
NtRp5973
(dp5974
g62
(dp5975
sg71
g5960
sg64
(lp5976
g57
(g58
g59
NtRp5977
(dp5978
g62
(dp5979
g70
I5
ssg71
g5973
sg64
(lp5980
g4471
(S's\r\x00\x00\x00customize me!'
tRp5981
asbasbasbag57
(g73
g59
NtRp5982
(dp5983
g62
(dp5984
sg71
g3833
sg64
(lp5985
g57
(g78
g59
NtRp5986
(dp5987
g62
(dp5988
g82
g83
ssg71
g5982
sg64
(lp5989
S'title'
p5990
asbag57
(g78
g59
NtRp5991
(dp5992
g62
(dp5993
g89
g90
ssg71
g5982
sg64
(lp5994
S':'
asbag57
(g78
g59
NtRp5995
(dp5996
g62
(dp5997
sg71
g5982
sg64
(lp5998
g57
(g58
g59
NtRp5999
(dp6000
g62
(dp6001
g70
I5
ssg71
g5995
sg64
(lp6002
S'Shipra'
p6003
asbasbasbag57
(g73
g59
NtRp6004
(dp6005
g62
(dp6006
sg71
g3833
sg64
(lp6007
g57
(g78
g59
NtRp6008
(dp6009
g62
(dp6010
g82
g83
ssg71
g6004
sg64
(lp6011
S'view'
p6012
asbag57
(g78
g59
NtRp6013
(dp6014
g62
(dp6015
g89
g90
ssg71
g6004
sg64
(lp6016
S':'
asbag57
(g78
g59
NtRp6017
(dp6018
g62
(dp6019
sg71
g6004
sg64
(lp6020
g57
(g58
g59
NtRp6021
(dp6022
g62
(dp6023
g70
I5
ssg71
g6017
sg64
(lp6024
S'default/prin.html'
p6025
asbasbasbasbasbsS'locals'
p6026
(dp6027
S'i'
S"'Gender'"
p6028
sS'self'
p6029
S'<Rows (1)>'
p6030
sssS'traceback'
p6031
S'Traceback (most recent call last):\n  File "/home/shipra/Desktop/Semester 1.2/ITWS-2/web2py/gluon/restricted.py", line 212, in restricted\n    exec ccode in environment\n  File "/home/shipra/Desktop/Semester 1.2/ITWS-2/web2py/applications/shipra/views/default/prin.html", line 83, in <module>\n  File "/home/shipra/Desktop/Semester 1.2/ITWS-2/web2py/gluon/dal.py", line 9170, in __getitem__\n    row = self.records[i]\nTypeError: list indices must be integers, not str\n'
p6032
s.